# SymbolsHelper-Confirmed: 2.14.1 amd64 i386
libqscintilla2_qt5.so.15 libqscintilla2-qt5-15 #MINVER#
* Build-Depends-Package: libqscintilla2-qt5-dev
 _ZGVZNKSt8__detail11_AnyMatcherINSt7__cxx1112regex_traitsIcEELb0ELb0ELb0EEclEcE5__nul@Base 2.11.2
 _ZGVZNKSt8__detail11_AnyMatcherINSt7__cxx1112regex_traitsIcEELb0ELb0ELb1EEclEcE5__nul@Base 2.11.2
 _ZGVZNKSt8__detail11_AnyMatcherINSt7__cxx1112regex_traitsIcEELb0ELb1ELb0EEclEcE5__nul@Base 2.11.2
 _ZGVZNKSt8__detail11_AnyMatcherINSt7__cxx1112regex_traitsIcEELb0ELb1ELb1EEclEcE5__nul@Base 2.11.2
 _ZGVZNKSt8__detail11_AnyMatcherINSt7__cxx1112regex_traitsIwEELb0ELb0ELb0EEclEwE5__nul@Base 2.11.2
 _ZGVZNKSt8__detail11_AnyMatcherINSt7__cxx1112regex_traitsIwEELb0ELb0ELb1EEclEwE5__nul@Base 2.11.2
 _ZGVZNKSt8__detail11_AnyMatcherINSt7__cxx1112regex_traitsIwEELb0ELb1ELb0EEclEwE5__nul@Base 2.11.2
 _ZGVZNKSt8__detail11_AnyMatcherINSt7__cxx1112regex_traitsIwEELb0ELb1ELb1EEclEwE5__nul@Base 2.11.2
 _ZN10QsciLexerD11qt_metacallEN11QMetaObject4CallEiPPv@Base 2.11.2
 _ZN10QsciLexerD11qt_metacastEPKc@Base 2.11.2
 _ZN10QsciLexerD13setAtElsePropEv@Base 2.11.2
 _ZN10QsciLexerD13setFoldAtElseEb@Base 2.11.2
 _ZN10QsciLexerD14readPropertiesER9QSettingsRK7QString@Base 2.11.2
 _ZN10QsciLexerD14setCommentPropEv@Base 2.11.2
 _ZN10QsciLexerD14setCompactPropEv@Base 2.11.2
 _ZN10QsciLexerD14setFoldCompactEb@Base 2.11.2
 _ZN10QsciLexerD15setFoldCommentsEb@Base 2.11.2
 _ZN10QsciLexerD16staticMetaObjectE@Base 2.11.2
 _ZN10QsciLexerD17refreshPropertiesEv@Base 2.11.2
 _ZN10QsciLexerDC1EP7QObject@Base 2.11.2
 _ZN10QsciLexerDC2EP7QObject@Base 2.11.2
 _ZN10QsciLexerDD0Ev@Base 2.11.2
 _ZN10QsciLexerDD1Ev@Base 2.11.2
 _ZN10QsciLexerDD2Ev@Base 2.11.2
 _ZN11QsciCommand15setAlternateKeyEi@Base 2.11.2
 _ZN11QsciCommand6setKeyEi@Base 2.11.2
 _ZN11QsciCommand7bindKeyEiRiS0_@Base 2.11.2
 _ZN11QsciCommand7executeEv@Base 2.11.2
 _ZN11QsciCommand8validKeyEi@Base 2.11.2
 _ZN11QsciCommandC1EP13QsciScintillaNS_7CommandEiiPKc@Base 2.11.2
 _ZN11QsciCommandC2EP13QsciScintillaNS_7CommandEiiPKc@Base 2.11.2
 _ZN11QsciLexerPO11qt_metacallEN11QMetaObject4CallEiPPv@Base 2.11.2
 _ZN11QsciLexerPO11qt_metacastEPKc@Base 2.11.2
 _ZN11QsciLexerPO14readPropertiesER9QSettingsRK7QString@Base 2.11.2
 _ZN11QsciLexerPO14setCommentPropEv@Base 2.11.2
 _ZN11QsciLexerPO14setCompactPropEv@Base 2.11.2
 _ZN11QsciLexerPO14setFoldCompactEb@Base 2.11.2
 _ZN11QsciLexerPO15setFoldCommentsEb@Base 2.11.2
 _ZN11QsciLexerPO16staticMetaObjectE@Base 2.11.2
 _ZN11QsciLexerPO17refreshPropertiesEv@Base 2.11.2
 _ZN11QsciLexerPOC1EP7QObject@Base 2.11.2
 _ZN11QsciLexerPOC2EP7QObject@Base 2.11.2
 _ZN11QsciLexerPOD0Ev@Base 2.11.2
 _ZN11QsciLexerPOD1Ev@Base 2.11.2
 _ZN11QsciLexerPOD2Ev@Base 2.11.2
 _ZN11QsciPrinter10formatPageER8QPainterbR5QRecti@Base 2.11.2
 _ZN11QsciPrinter10printRangeEP17QsciScintillaBaseR8QPainterii@Base 2.13.3
 _ZN11QsciPrinter10printRangeEP17QsciScintillaBaseii@Base 2.11.2
 _ZN11QsciPrinter11setWrapModeEN13QsciScintilla8WrapModeE@Base 2.11.2
 _ZN11QsciPrinter16setMagnificationEi@Base 2.11.2
 _ZN11QsciPrinterC1EN8QPrinter11PrinterModeE@Base 2.11.2
 _ZN11QsciPrinterC2EN8QPrinter11PrinterModeE@Base 2.11.2
 _ZN11QsciPrinterD0Ev@Base 2.11.2
 _ZN11QsciPrinterD1Ev@Base 2.11.2
 _ZN11QsciPrinterD2Ev@Base 2.11.2
 _ZN12QsciDocument11setModifiedEb@Base 2.11.2
 _ZN12QsciDocument6attachERKS_@Base 2.11.2
 _ZN12QsciDocument6detachEv@Base 2.11.2
 _ZN12QsciDocument7displayEP17QsciScintillaBasePKS_@Base 2.11.2
 _ZN12QsciDocument9undisplayEP17QsciScintillaBase@Base 2.11.2
 _ZN12QsciDocumentC1ERKS_@Base 2.11.2
 _ZN12QsciDocumentC1Ev@Base 2.11.2
 _ZN12QsciDocumentC2ERKS_@Base 2.11.2
 _ZN12QsciDocumentC2Ev@Base 2.11.2
 _ZN12QsciDocumentD0Ev@Base 2.11.2
 _ZN12QsciDocumentD1Ev@Base 2.11.2
 _ZN12QsciDocumentD2Ev@Base 2.11.2
 _ZN12QsciDocumentaSERKS_@Base 2.11.2
 _ZN12QsciLexerAVS11qt_metacallEN11QMetaObject4CallEiPPv@Base 2.11.2
 _ZN12QsciLexerAVS11qt_metacastEPKc@Base 2.11.2
 _ZN12QsciLexerAVS14readPropertiesER9QSettingsRK7QString@Base 2.11.2
 _ZN12QsciLexerAVS14setCommentPropEv@Base 2.11.2
 _ZN12QsciLexerAVS14setCompactPropEv@Base 2.11.2
 _ZN12QsciLexerAVS14setFoldCompactEb@Base 2.11.2
 _ZN12QsciLexerAVS15setFoldCommentsEb@Base 2.11.2
 _ZN12QsciLexerAVS16staticMetaObjectE@Base 2.11.2
 _ZN12QsciLexerAVS17refreshPropertiesEv@Base 2.11.2
 _ZN12QsciLexerAVSC1EP7QObject@Base 2.11.2
 _ZN12QsciLexerAVSC2EP7QObject@Base 2.11.2
 _ZN12QsciLexerAVSD0Ev@Base 2.11.2
 _ZN12QsciLexerAVSD1Ev@Base 2.11.2
 _ZN12QsciLexerAVSD2Ev@Base 2.11.2
 _ZN12QsciLexerAsm11qt_metacallEN11QMetaObject4CallEiPPv@Base 2.14.1
 _ZN12QsciLexerAsm11qt_metacastEPKc@Base 2.14.1
 _ZN12QsciLexerAsm14readPropertiesER9QSettingsRK7QString@Base 2.14.1
 _ZN12QsciLexerAsm14setCommentPropEv@Base 2.14.1
 _ZN12QsciLexerAsm14setCompactPropEv@Base 2.14.1
 _ZN12QsciLexerAsm14setFoldCompactEb@Base 2.14.1
 _ZN12QsciLexerAsm15setFoldCommentsEb@Base 2.14.1
 _ZN12QsciLexerAsm16staticMetaObjectE@Base 2.14.1
 _ZN12QsciLexerAsm17refreshPropertiesEv@Base 2.14.1
 _ZN12QsciLexerAsm18setFoldSyntaxBasedEb@Base 2.14.1
 _ZN12QsciLexerAsm18setSyntaxBasedPropEv@Base 2.14.1
 _ZN12QsciLexerAsm19setCommentDelimiterE5QChar@Base 2.14.1
 _ZN12QsciLexerAsm23setCommentDelimiterPropEv@Base 2.14.1
 _ZN12QsciLexerAsmC1EP7QObject@Base 2.14.1
 _ZN12QsciLexerAsmC2EP7QObject@Base 2.14.1
 _ZN12QsciLexerAsmD0Ev@Base 2.14.1
 _ZN12QsciLexerAsmD1Ev@Base 2.14.1
 _ZN12QsciLexerAsmD2Ev@Base 2.14.1
 _ZN12QsciLexerCPP11qt_metacallEN11QMetaObject4CallEiPPv@Base 2.11.2
 _ZN12QsciLexerCPP11qt_metacastEPKc@Base 2.11.2
 _ZN12QsciLexerCPP13setAtElsePropEv@Base 2.11.2
 _ZN12QsciLexerCPP13setFoldAtElseEb@Base 2.11.2
 _ZN12QsciLexerCPP14readPropertiesER9QSettingsRK7QString@Base 2.11.2
 _ZN12QsciLexerCPP14setCommentPropEv@Base 2.11.2
 _ZN12QsciLexerCPP14setCompactPropEv@Base 2.11.2
 _ZN12QsciLexerCPP14setDollarsPropEv@Base 2.11.2
 _ZN12QsciLexerCPP14setFoldCompactEb@Base 2.11.2
 _ZN12QsciLexerCPP14setPreprocPropEv@Base 2.11.2
 _ZN12QsciLexerCPP15setFoldCommentsEb@Base 2.11.2
 _ZN12QsciLexerCPP16staticMetaObjectE@Base 2.11.2
 _ZN12QsciLexerCPP17refreshPropertiesEv@Base 2.11.2
 _ZN12QsciLexerCPP17setDollarsAllowedEb@Base 2.11.2
 _ZN12QsciLexerCPP19setFoldPreprocessorEb@Base 2.11.2
 _ZN12QsciLexerCPP19setStylePreprocPropEv@Base 2.11.2
 _ZN12QsciLexerCPP20setHighlightBackPropEv@Base 2.11.2
 _ZN12QsciLexerCPP20setHighlightHashPropEv@Base 2.11.2
 _ZN12QsciLexerCPP20setStylePreprocessorEb@Base 2.11.2
 _ZN12QsciLexerCPP22setHighlightEscapePropEv@Base 2.11.2
 _ZN12QsciLexerCPP22setHighlightTriplePropEv@Base 2.11.2
 _ZN12QsciLexerCPP27setHighlightEscapeSequencesEb@Base 2.11.2
 _ZN12QsciLexerCPP27setVerbatimStringEscapePropEv@Base 2.11.2
 _ZN12QsciLexerCPP29setHighlightBackQuotedStringsEb@Base 2.11.2
 _ZN12QsciLexerCPP29setHighlightHashQuotedStringsEb@Base 2.11.2
 _ZN12QsciLexerCPP31setHighlightTripleQuotedStringsEb@Base 2.11.2
 _ZN12QsciLexerCPP39setVerbatimStringEscapeSequencesAllowedEb@Base 2.11.2
 _ZN12QsciLexerCPPC1EP7QObjectb@Base 2.11.2
 _ZN12QsciLexerCPPC2EP7QObjectb@Base 2.11.2
 _ZN12QsciLexerCPPD0Ev@Base 2.11.2
 _ZN12QsciLexerCPPD1Ev@Base 2.11.2
 _ZN12QsciLexerCPPD2Ev@Base 2.11.2
 _ZN12QsciLexerCSS10setHSSPropEv@Base 2.11.2
 _ZN12QsciLexerCSS11qt_metacallEN11QMetaObject4CallEiPPv@Base 2.11.2
 _ZN12QsciLexerCSS11qt_metacastEPKc@Base 2.11.2
 _ZN12QsciLexerCSS11setLessPropEv@Base 2.11.2
 _ZN12QsciLexerCSS11setSCSSPropEv@Base 2.11.2
 _ZN12QsciLexerCSS14readPropertiesER9QSettingsRK7QString@Base 2.11.2
 _ZN12QsciLexerCSS14setCommentPropEv@Base 2.11.2
 _ZN12QsciLexerCSS14setCompactPropEv@Base 2.11.2
 _ZN12QsciLexerCSS14setFoldCompactEb@Base 2.11.2
 _ZN12QsciLexerCSS14setHSSLanguageEb@Base 2.11.2
 _ZN12QsciLexerCSS15setFoldCommentsEb@Base 2.11.2
 _ZN12QsciLexerCSS15setLessLanguageEb@Base 2.11.2
 _ZN12QsciLexerCSS15setSCSSLanguageEb@Base 2.11.2
 _ZN12QsciLexerCSS16staticMetaObjectE@Base 2.11.2
 _ZN12QsciLexerCSS17refreshPropertiesEv@Base 2.11.2
 _ZN12QsciLexerCSSC1EP7QObject@Base 2.11.2
 _ZN12QsciLexerCSSC2EP7QObject@Base 2.11.2
 _ZN12QsciLexerCSSD0Ev@Base 2.11.2
 _ZN12QsciLexerCSSD1Ev@Base 2.11.2
 _ZN12QsciLexerCSSD2Ev@Base 2.11.2
 _ZN12QsciLexerHex11qt_metacallEN11QMetaObject4CallEiPPv@Base 2.14.1
 _ZN12QsciLexerHex11qt_metacastEPKc@Base 2.14.1
 _ZN12QsciLexerHex16staticMetaObjectE@Base 2.14.1
 _ZN12QsciLexerHexC1EP7QObject@Base 2.14.1
 _ZN12QsciLexerHexC2EP7QObject@Base 2.14.1
 _ZN12QsciLexerHexD0Ev@Base 2.14.1
 _ZN12QsciLexerHexD1Ev@Base 2.14.1
 _ZN12QsciLexerHexD2Ev@Base 2.14.1
 _ZN12QsciLexerIDL11qt_metacallEN11QMetaObject4CallEiPPv@Base 2.11.2
 _ZN12QsciLexerIDL11qt_metacastEPKc@Base 2.11.2
 _ZN12QsciLexerIDL16staticMetaObjectE@Base 2.11.2
 _ZN12QsciLexerIDLC1EP7QObject@Base 2.11.2
 _ZN12QsciLexerIDLC2EP7QObject@Base 2.11.2
 _ZN12QsciLexerIDLD0Ev@Base 2.11.2
 _ZN12QsciLexerIDLD1Ev@Base 2.11.2
 _ZN12QsciLexerIDLD2Ev@Base 2.11.2
 _ZN12QsciLexerLua11qt_metacallEN11QMetaObject4CallEiPPv@Base 2.11.2
 _ZN12QsciLexerLua11qt_metacastEPKc@Base 2.11.2
 _ZN12QsciLexerLua14readPropertiesER9QSettingsRK7QString@Base 2.11.2
 _ZN12QsciLexerLua14setCompactPropEv@Base 2.11.2
 _ZN12QsciLexerLua14setFoldCompactEb@Base 2.11.2
 _ZN12QsciLexerLua16staticMetaObjectE@Base 2.11.2
 _ZN12QsciLexerLua17refreshPropertiesEv@Base 2.11.2
 _ZN12QsciLexerLuaC1EP7QObject@Base 2.11.2
 _ZN12QsciLexerLuaC2EP7QObject@Base 2.11.2
 _ZN12QsciLexerLuaD0Ev@Base 2.11.2
 _ZN12QsciLexerLuaD1Ev@Base 2.11.2
 _ZN12QsciLexerLuaD2Ev@Base 2.11.2
 _ZN12QsciLexerPOV11qt_metacallEN11QMetaObject4CallEiPPv@Base 2.11.2
 _ZN12QsciLexerPOV11qt_metacastEPKc@Base 2.11.2
 _ZN12QsciLexerPOV14readPropertiesER9QSettingsRK7QString@Base 2.11.2
 _ZN12QsciLexerPOV14setCommentPropEv@Base 2.11.2
 _ZN12QsciLexerPOV14setCompactPropEv@Base 2.11.2
 _ZN12QsciLexerPOV14setFoldCompactEb@Base 2.11.2
 _ZN12QsciLexerPOV15setFoldCommentsEb@Base 2.11.2
 _ZN12QsciLexerPOV16setDirectivePropEv@Base 2.11.2
 _ZN12QsciLexerPOV16staticMetaObjectE@Base 2.11.2
 _ZN12QsciLexerPOV17refreshPropertiesEv@Base 2.11.2
 _ZN12QsciLexerPOV17setFoldDirectivesEb@Base 2.11.2
 _ZN12QsciLexerPOVC1EP7QObject@Base 2.11.2
 _ZN12QsciLexerPOVC2EP7QObject@Base 2.11.2
 _ZN12QsciLexerPOVD0Ev@Base 2.11.2
 _ZN12QsciLexerPOVD1Ev@Base 2.11.2
 _ZN12QsciLexerPOVD2Ev@Base 2.11.2
 _ZN12QsciLexerSQL11qt_metacallEN11QMetaObject4CallEiPPv@Base 2.11.2
 _ZN12QsciLexerSQL11qt_metacastEPKc@Base 2.11.2
 _ZN12QsciLexerSQL13setAtElsePropEv@Base 2.11.2
 _ZN12QsciLexerSQL13setFoldAtElseEb@Base 2.11.2
 _ZN12QsciLexerSQL14readPropertiesER9QSettingsRK7QString@Base 2.11.2
 _ZN12QsciLexerSQL14setCommentPropEv@Base 2.11.2
 _ZN12QsciLexerSQL14setCompactPropEv@Base 2.11.2
 _ZN12QsciLexerSQL14setDottedWordsEb@Base 2.11.2
 _ZN12QsciLexerSQL14setFoldCompactEb@Base 2.11.2
 _ZN12QsciLexerSQL15setFoldCommentsEb@Base 2.11.2
 _ZN12QsciLexerSQL15setHashCommentsEb@Base 2.11.2
 _ZN12QsciLexerSQL16setFoldOnlyBeginEb@Base 2.11.2
 _ZN12QsciLexerSQL16setOnlyBeginPropEv@Base 2.11.2
 _ZN12QsciLexerSQL16staticMetaObjectE@Base 2.11.2
 _ZN12QsciLexerSQL17refreshPropertiesEv@Base 2.11.2
 _ZN12QsciLexerSQL19setBackslashEscapesEb@Base 2.11.2
 _ZN12QsciLexerSQL20setQuotedIdentifiersEb@Base 2.11.2
 _ZN12QsciLexerSQL22setAllowDottedWordPropEv@Base 2.11.2
 _ZN12QsciLexerSQL23setBackslashEscapesPropEv@Base 2.11.2
 _ZN12QsciLexerSQL24setNumbersignCommentPropEv@Base 2.11.2
 _ZN12QsciLexerSQL26setBackticksIdentifierPropEv@Base 2.11.2
 _ZN12QsciLexerSQLC1EP7QObject@Base 2.11.2
 _ZN12QsciLexerSQLC2EP7QObject@Base 2.11.2
 _ZN12QsciLexerSQLD0Ev@Base 2.11.2
 _ZN12QsciLexerSQLD1Ev@Base 2.11.2
 _ZN12QsciLexerSQLD2Ev@Base 2.11.2
 _ZN12QsciLexerTCL11qt_metacallEN11QMetaObject4CallEiPPv@Base 2.11.2
 _ZN12QsciLexerTCL11qt_metacastEPKc@Base 2.11.2
 _ZN12QsciLexerTCL14readPropertiesER9QSettingsRK7QString@Base 2.11.2
 _ZN12QsciLexerTCL14setCommentPropEv@Base 2.11.2
 _ZN12QsciLexerTCL15setFoldCommentsEb@Base 2.11.2
 _ZN12QsciLexerTCL16staticMetaObjectE@Base 2.11.2
 _ZN12QsciLexerTCL17refreshPropertiesEv@Base 2.11.2
 _ZN12QsciLexerTCLC1EP7QObject@Base 2.11.2
 _ZN12QsciLexerTCLC2EP7QObject@Base 2.11.2
 _ZN12QsciLexerTCLD0Ev@Base 2.11.2
 _ZN12QsciLexerTCLD1Ev@Base 2.11.2
 _ZN12QsciLexerTCLD2Ev@Base 2.11.2
 _ZN12QsciLexerTeX11qt_metacallEN11QMetaObject4CallEiPPv@Base 2.11.2
 _ZN12QsciLexerTeX11qt_metacastEPKc@Base 2.11.2
 _ZN12QsciLexerTeX12setProcessIfEb@Base 2.11.2
 _ZN12QsciLexerTeX13setAutoIfPropEv@Base 2.11.2
 _ZN12QsciLexerTeX14readPropertiesER9QSettingsRK7QString@Base 2.11.2
 _ZN12QsciLexerTeX14setCommentPropEv@Base 2.11.2
 _ZN12QsciLexerTeX14setCompactPropEv@Base 2.11.2
 _ZN12QsciLexerTeX14setFoldCompactEb@Base 2.11.2
 _ZN12QsciLexerTeX15setFoldCommentsEb@Base 2.11.2
 _ZN12QsciLexerTeX16staticMetaObjectE@Base 2.11.2
 _ZN12QsciLexerTeX17refreshPropertiesEv@Base 2.11.2
 _ZN12QsciLexerTeX18setProcessCommentsEb@Base 2.11.2
 _ZN12QsciLexerTeX22setProcessCommentsPropEv@Base 2.11.2
 _ZN12QsciLexerTeXC1EP7QObject@Base 2.11.2
 _ZN12QsciLexerTeXC2EP7QObject@Base 2.11.2
 _ZN12QsciLexerTeXD0Ev@Base 2.11.2
 _ZN12QsciLexerTeXD1Ev@Base 2.11.2
 _ZN12QsciLexerTeXD2Ev@Base 2.11.2
 _ZN12QsciLexerXML11qt_metacallEN11QMetaObject4CallEiPPv@Base 2.11.2
 _ZN12QsciLexerXML11qt_metacastEPKc@Base 2.11.2
 _ZN12QsciLexerXML14readPropertiesER9QSettingsRK7QString@Base 2.11.2
 _ZN12QsciLexerXML14setScriptsPropEv@Base 2.11.2
 _ZN12QsciLexerXML16setScriptsStyledEb@Base 2.11.2
 _ZN12QsciLexerXML16staticMetaObjectE@Base 2.11.2
 _ZN12QsciLexerXML17refreshPropertiesEv@Base 2.11.2
 _ZN12QsciLexerXMLC1EP7QObject@Base 2.11.2
 _ZN12QsciLexerXMLC2EP7QObject@Base 2.11.2
 _ZN12QsciLexerXMLD0Ev@Base 2.11.2
 _ZN12QsciLexerXMLD1Ev@Base 2.11.2
 _ZN12QsciLexerXMLD2Ev@Base 2.11.2
 _ZN13QsciLexerBash11qt_metacallEN11QMetaObject4CallEiPPv@Base 2.11.2
 _ZN13QsciLexerBash11qt_metacastEPKc@Base 2.11.2
 _ZN13QsciLexerBash14readPropertiesER9QSettingsRK7QString@Base 2.11.2
 _ZN13QsciLexerBash14setCommentPropEv@Base 2.11.2
 _ZN13QsciLexerBash14setCompactPropEv@Base 2.11.2
 _ZN13QsciLexerBash14setFoldCompactEb@Base 2.11.2
 _ZN13QsciLexerBash15setFoldCommentsEb@Base 2.11.2
 _ZN13QsciLexerBash16staticMetaObjectE@Base 2.11.2
 _ZN13QsciLexerBash17refreshPropertiesEv@Base 2.11.2
 _ZN13QsciLexerBashC1EP7QObject@Base 2.11.2
 _ZN13QsciLexerBashC2EP7QObject@Base 2.11.2
 _ZN13QsciLexerBashD0Ev@Base 2.11.2
 _ZN13QsciLexerBashD1Ev@Base 2.11.2
 _ZN13QsciLexerBashD2Ev@Base 2.11.2
 _ZN13QsciLexerDiff11qt_metacallEN11QMetaObject4CallEiPPv@Base 2.11.2
 _ZN13QsciLexerDiff11qt_metacastEPKc@Base 2.11.2
 _ZN13QsciLexerDiff16staticMetaObjectE@Base 2.11.2
 _ZN13QsciLexerDiffC1EP7QObject@Base 2.11.2
 _ZN13QsciLexerDiffC2EP7QObject@Base 2.11.2
 _ZN13QsciLexerDiffD0Ev@Base 2.11.2
 _ZN13QsciLexerDiffD1Ev@Base 2.11.2
 _ZN13QsciLexerDiffD2Ev@Base 2.11.2
 _ZN13QsciLexerHTML11qt_metacallEN11QMetaObject4CallEiPPv@Base 2.11.2
 _ZN13QsciLexerHTML11qt_metacastEPKc@Base 2.11.2
 _ZN13QsciLexerHTML11setMakoPropEv@Base 2.11.2
 _ZN13QsciLexerHTML13setDjangoPropEv@Base 2.11.2
 _ZN13QsciLexerHTML14readPropertiesER9QSettingsRK7QString@Base 2.11.2
 _ZN13QsciLexerHTML14setCompactPropEv@Base 2.11.2
 _ZN13QsciLexerHTML14setFoldCompactEb@Base 2.11.2
 _ZN13QsciLexerHTML14setPreprocPropEv@Base 2.11.2
 _ZN13QsciLexerHTML16setMakoTemplatesEb@Base 2.11.2
 _ZN13QsciLexerHTML16staticMetaObjectE@Base 2.11.2
 _ZN13QsciLexerHTML17refreshPropertiesEv@Base 2.11.2
 _ZN13QsciLexerHTML18setDjangoTemplatesEb@Base 2.11.2
 _ZN13QsciLexerHTML19setCaseSensTagsPropEv@Base 2.11.2
 _ZN13QsciLexerHTML19setFoldPreprocessorEb@Base 2.11.2
 _ZN13QsciLexerHTML20setCaseSensitiveTagsEb@Base 2.11.2
 _ZN13QsciLexerHTML21setFoldScriptCommentsEb@Base 2.11.2
 _ZN13QsciLexerHTML21setFoldScriptHeredocsEb@Base 2.11.2
 _ZN13QsciLexerHTML21setScriptCommentsPropEv@Base 2.11.2
 _ZN13QsciLexerHTML21setScriptHeredocsPropEv@Base 2.11.2
 _ZN13QsciLexerHTMLC1EP7QObject@Base 2.11.2
 _ZN13QsciLexerHTMLC2EP7QObject@Base 2.11.2
 _ZN13QsciLexerHTMLD0Ev@Base 2.11.2
 _ZN13QsciLexerHTMLD1Ev@Base 2.11.2
 _ZN13QsciLexerHTMLD2Ev@Base 2.11.2
 _ZN13QsciLexerJSON11qt_metacallEN11QMetaObject4CallEiPPv@Base 2.11.2
 _ZN13QsciLexerJSON11qt_metacastEPKc@Base 2.11.2
 _ZN13QsciLexerJSON14readPropertiesER9QSettingsRK7QString@Base 2.11.2
 _ZN13QsciLexerJSON14setCompactPropEv@Base 2.11.2
 _ZN13QsciLexerJSON14setFoldCompactEb@Base 2.11.2
 _ZN13QsciLexerJSON16staticMetaObjectE@Base 2.11.2
 _ZN13QsciLexerJSON17refreshPropertiesEv@Base 2.11.2
 _ZN13QsciLexerJSON20setAllowCommentsPropEv@Base 2.11.2
 _ZN13QsciLexerJSON20setHighlightCommentsEb@Base 2.11.2
 _ZN13QsciLexerJSON21setEscapeSequencePropEv@Base 2.11.2
 _ZN13QsciLexerJSON27setHighlightEscapeSequencesEb@Base 2.11.2
 _ZN13QsciLexerJSONC1EP7QObject@Base 2.11.2
 _ZN13QsciLexerJSONC2EP7QObject@Base 2.11.2
 _ZN13QsciLexerJSOND0Ev@Base 2.11.2
 _ZN13QsciLexerJSOND1Ev@Base 2.11.2
 _ZN13QsciLexerJSOND2Ev@Base 2.11.2
 _ZN13QsciLexerJava11qt_metacallEN11QMetaObject4CallEiPPv@Base 2.11.2
 _ZN13QsciLexerJava11qt_metacastEPKc@Base 2.11.2
 _ZN13QsciLexerJava16staticMetaObjectE@Base 2.11.2
 _ZN13QsciLexerJavaC1EP7QObject@Base 2.11.2
 _ZN13QsciLexerJavaC2EP7QObject@Base 2.11.2
 _ZN13QsciLexerJavaD0Ev@Base 2.11.2
 _ZN13QsciLexerJavaD1Ev@Base 2.11.2
 _ZN13QsciLexerJavaD2Ev@Base 2.11.2
 _ZN13QsciLexerMASM11qt_metacallEN11QMetaObject4CallEiPPv@Base 2.14.1
 _ZN13QsciLexerMASM11qt_metacastEPKc@Base 2.14.1
 _ZN13QsciLexerMASM16staticMetaObjectE@Base 2.14.1
 _ZN13QsciLexerMASMC1EP7QObject@Base 2.14.1
 _ZN13QsciLexerMASMC2EP7QObject@Base 2.14.1
 _ZN13QsciLexerMASMD0Ev@Base 2.14.1
 _ZN13QsciLexerMASMD1Ev@Base 2.14.1
 _ZN13QsciLexerMASMD2Ev@Base 2.14.1
 _ZN13QsciLexerNASM11qt_metacallEN11QMetaObject4CallEiPPv@Base 2.14.1
 _ZN13QsciLexerNASM11qt_metacastEPKc@Base 2.14.1
 _ZN13QsciLexerNASM16staticMetaObjectE@Base 2.14.1
 _ZN13QsciLexerNASMC1EP7QObject@Base 2.14.1
 _ZN13QsciLexerNASMC2EP7QObject@Base 2.14.1
 _ZN13QsciLexerNASMD0Ev@Base 2.14.1
 _ZN13QsciLexerNASMD1Ev@Base 2.14.1
 _ZN13QsciLexerNASMD2Ev@Base 2.14.1
 _ZN13QsciLexerPerl11qt_metacallEN11QMetaObject4CallEiPPv@Base 2.11.2
 _ZN13QsciLexerPerl11qt_metacastEPKc@Base 2.11.2
 _ZN13QsciLexerPerl13setAtElsePropEv@Base 2.11.2
 _ZN13QsciLexerPerl13setFoldAtElseEb@Base 2.11.2
 _ZN13QsciLexerPerl14readPropertiesER9QSettingsRK7QString@Base 2.11.2
 _ZN13QsciLexerPerl14setCommentPropEv@Base 2.11.2
 _ZN13QsciLexerPerl14setCompactPropEv@Base 2.11.2
 _ZN13QsciLexerPerl14setFoldCompactEb@Base 2.11.2
 _ZN13QsciLexerPerl15setFoldCommentsEb@Base 2.11.2
 _ZN13QsciLexerPerl15setFoldPackagesEb@Base 2.11.2
 _ZN13QsciLexerPerl15setPackagesPropEv@Base 2.11.2
 _ZN13QsciLexerPerl16setFoldPODBlocksEb@Base 2.11.2
 _ZN13QsciLexerPerl16setPODBlocksPropEv@Base 2.11.2
 _ZN13QsciLexerPerl16staticMetaObjectE@Base 2.11.2
 _ZN13QsciLexerPerl17refreshPropertiesEv@Base 2.11.2
 _ZN13QsciLexerPerlC1EP7QObject@Base 2.11.2
 _ZN13QsciLexerPerlC2EP7QObject@Base 2.11.2
 _ZN13QsciLexerPerlD0Ev@Base 2.11.2
 _ZN13QsciLexerPerlD1Ev@Base 2.11.2
 _ZN13QsciLexerPerlD2Ev@Base 2.11.2
 _ZN13QsciLexerRuby11qt_metacallEN11QMetaObject4CallEiPPv@Base 2.11.2
 _ZN13QsciLexerRuby11qt_metacastEPKc@Base 2.11.2
 _ZN13QsciLexerRuby14readPropertiesER9QSettingsRK7QString@Base 2.11.2
 _ZN13QsciLexerRuby14setCommentPropEv@Base 2.11.2
 _ZN13QsciLexerRuby14setCompactPropEv@Base 2.11.2
 _ZN13QsciLexerRuby14setFoldCompactEb@Base 2.11.2
 _ZN13QsciLexerRuby15setFoldCommentsEb@Base 2.11.2
 _ZN13QsciLexerRuby16staticMetaObjectE@Base 2.11.2
 _ZN13QsciLexerRuby17refreshPropertiesEv@Base 2.11.2
 _ZN13QsciLexerRubyC1EP7QObject@Base 2.11.2
 _ZN13QsciLexerRubyC2EP7QObject@Base 2.11.2
 _ZN13QsciLexerRubyD0Ev@Base 2.11.2
 _ZN13QsciLexerRubyD1Ev@Base 2.11.2
 _ZN13QsciLexerRubyD2Ev@Base 2.11.2
 _ZN13QsciLexerSRec11qt_metacallEN11QMetaObject4CallEiPPv@Base 2.14.1
 _ZN13QsciLexerSRec11qt_metacastEPKc@Base 2.14.1
 _ZN13QsciLexerSRec16staticMetaObjectE@Base 2.14.1
 _ZN13QsciLexerSRecC1EP7QObject@Base 2.14.1
 _ZN13QsciLexerSRecC2EP7QObject@Base 2.14.1
 _ZN13QsciLexerSRecD0Ev@Base 2.14.1
 _ZN13QsciLexerSRecD1Ev@Base 2.14.1
 _ZN13QsciLexerSRecD2Ev@Base 2.14.1
 _ZN13QsciLexerVHDL11qt_metacallEN11QMetaObject4CallEiPPv@Base 2.11.2
 _ZN13QsciLexerVHDL11qt_metacastEPKc@Base 2.11.2
 _ZN13QsciLexerVHDL13setAtElsePropEv@Base 2.11.2
 _ZN13QsciLexerVHDL13setFoldAtElseEb@Base 2.11.2
 _ZN13QsciLexerVHDL14readPropertiesER9QSettingsRK7QString@Base 2.11.2
 _ZN13QsciLexerVHDL14setAtBeginPropEv@Base 2.11.2
 _ZN13QsciLexerVHDL14setCommentPropEv@Base 2.11.2
 _ZN13QsciLexerVHDL14setCompactPropEv@Base 2.11.2
 _ZN13QsciLexerVHDL14setFoldAtBeginEb@Base 2.11.2
 _ZN13QsciLexerVHDL14setFoldCompactEb@Base 2.11.2
 _ZN13QsciLexerVHDL15setFoldCommentsEb@Base 2.11.2
 _ZN13QsciLexerVHDL16setAtParenthPropEv@Base 2.11.2
 _ZN13QsciLexerVHDL16staticMetaObjectE@Base 2.11.2
 _ZN13QsciLexerVHDL17refreshPropertiesEv@Base 2.11.2
 _ZN13QsciLexerVHDL20setFoldAtParenthesisEb@Base 2.11.2
 _ZN13QsciLexerVHDLC1EP7QObject@Base 2.11.2
 _ZN13QsciLexerVHDLC2EP7QObject@Base 2.11.2
 _ZN13QsciLexerVHDLD0Ev@Base 2.11.2
 _ZN13QsciLexerVHDLD1Ev@Base 2.11.2
 _ZN13QsciLexerVHDLD2Ev@Base 2.11.2
 _ZN13QsciLexerYAML11qt_metacallEN11QMetaObject4CallEiPPv@Base 2.11.2
 _ZN13QsciLexerYAML11qt_metacastEPKc@Base 2.11.2
 _ZN13QsciLexerYAML14readPropertiesER9QSettingsRK7QString@Base 2.11.2
 _ZN13QsciLexerYAML14setCommentPropEv@Base 2.11.2
 _ZN13QsciLexerYAML15setFoldCommentsEb@Base 2.11.2
 _ZN13QsciLexerYAML16staticMetaObjectE@Base 2.11.2
 _ZN13QsciLexerYAML17refreshPropertiesEv@Base 2.11.2
 _ZN13QsciLexerYAMLC1EP7QObject@Base 2.11.2
 _ZN13QsciLexerYAMLC2EP7QObject@Base 2.11.2
 _ZN13QsciLexerYAMLD0Ev@Base 2.11.2
 _ZN13QsciLexerYAMLD1Ev@Base 2.11.2
 _ZN13QsciLexerYAMLD2Ev@Base 2.11.2
 _ZN13QsciScintilla10allocateIdERiRjii@Base 2.11.2
 _ZN13QsciScintilla10apiContextEiRiS0_@Base 2.11.2
 _ZN13QsciScintilla10braceMatchEv@Base 2.11.2
 _ZN13QsciScintilla10cancelFindEv@Base 2.11.2
 _ZN13QsciScintilla10cancelListEv@Base 2.11.2
 _ZN13QsciScintilla10checkBraceEliRb@Base 2.11.2
 _ZN13QsciScintilla10clearFoldsEv@Base 2.11.2
 _ZN13QsciScintilla10foldExpandERibbii@Base 2.11.2
 _ZN13QsciScintilla10setEolModeENS_7EolModeE@Base 2.11.2
 _ZN13QsciScintilla10setFoldingENS_9FoldStyleEi@Base 2.11.2
 _ZN13QsciScintilla10setMarginsEi@Base 2.11.2
 _ZN13QsciScintilla10simpleFindEv@Base 2.11.2
 _ZN13QsciScintilla10wheelEventEP11QWheelEvent@Base 2.11.2
 _ZN13QsciScintilla11blockIndentEi@Base 2.11.2
 _ZN13QsciScintilla11changeEventEP6QEvent@Base 2.11.2
 _ZN13QsciScintilla11checkMarkerERi@Base 2.11.2
 _ZN13QsciScintilla11convertEolsENS_7EolModeE@Base 2.11.2
 _ZN13QsciScintilla11detachLexerEv@Base 2.11.2
 _ZN13QsciScintilla11foldChangedEiii@Base 2.11.2
 _ZN13QsciScintilla11insertAtPosERK7QStringi@Base 2.11.2
 _ZN13QsciScintilla11qt_metacallEN11QMetaObject4CallEiPPv@Base 2.11.2
 _ZN13QsciScintilla11qt_metacastEPKc@Base 2.11.2
 _ZN13QsciScintilla11setDocumentERK12QsciDocument@Base 2.11.2
 _ZN13QsciScintilla11setEdgeModeENS_8EdgeModeE@Base 2.11.2
 _ZN13QsciScintilla11setModifiedEb@Base 2.11.2
 _ZN13QsciScintilla11setReadOnlyEb@Base 2.11.2
 _ZN13QsciScintilla11setTabWidthEi@Base 2.11.2
 _ZN13QsciScintilla11setWrapModeENS_8WrapModeE@Base 2.11.2
 _ZN13QsciScintilla11textChangedEv@Base 2.11.2
 _ZN13QsciScintilla12linesChangedEv@Base 2.11.2
 _ZN13QsciScintilla12mapModifiersEi@Base 2.11.2
 _ZN13QsciScintilla12markerDefineENS_12MarkerSymbolEi@Base 2.11.2
 _ZN13QsciScintilla12markerDefineERK6QImagei@Base 2.11.2
 _ZN13QsciScintilla12markerDefineERK7QPixmapi@Base 2.11.2
 _ZN13QsciScintilla12markerDefineEci@Base 2.11.2
 _ZN13QsciScintilla12markerDeleteEii@Base 2.11.2
 _ZN13QsciScintilla12setEdgeColorERK6QColor@Base 2.11.2
 _ZN13QsciScintilla12setSelectionEiiii@Base 2.11.2
 _ZN13QsciScintilla12showUserListEiRK11QStringList@Base 2.11.2
 _ZN13QsciScintilla13addEdgeColumnEiRK6QColor@Base 2.11.2
 _ZN13QsciScintilla13copyAvailableEb@Base 2.11.2
 _ZN13QsciScintilla13endUndoActionEv@Base 2.11.2
 _ZN13QsciScintilla13marginClickedEii6QFlagsIN2Qt16KeyboardModifierEE@Base 2.11.2
 _ZN13QsciScintilla13registerImageEiRK6QImage@Base 2.11.2
 _ZN13QsciScintilla13registerImageEiRK7QPixmap@Base 2.11.2
 _ZN13QsciScintilla13setAutoIndentEb@Base 2.11.2
 _ZN13QsciScintilla13setCaretWidthEi@Base 2.11.2
 _ZN13QsciScintilla13setEdgeColumnEi@Base 2.11.2
 _ZN13QsciScintilla13setFoldMarkerEii@Base 2.11.2
 _ZN13QsciScintilla13setLexerStyleEi@Base 2.11.2
 _ZN13QsciScintilla13setMarginTextEiRK14QsciStyledText@Base 2.11.2
 _ZN13QsciScintilla13setMarginTextEiRK5QListI14QsciStyledTextE@Base 2.11.2
 _ZN13QsciScintilla13setMarginTextEiRK7QStringRK9QsciStyle@Base 2.11.2
 _ZN13QsciScintilla13setMarginTextEiRK7QStringi@Base 2.11.2
 _ZN13QsciScintilla13setMarginTypeEiNS_10MarginTypeE@Base 2.11.2
 _ZN13QsciScintilla13setStylesFontERK5QFonti@Base 2.11.2
 _ZN13QsciScintilla13setTabIndentsEb@Base 2.11.2
 _ZN13QsciScintilla14autoIndentLineElii@Base 2.11.2
 _ZN13QsciScintilla14checkIndicatorERi@Base 2.11.2
 _ZN13QsciScintilla14findStyledWordEPKciS1_@Base 2.11.2
 _ZN13QsciScintilla14getIndentStateEi@Base 2.11.2
 _ZN13QsciScintilla14handleModifiedEiiPKciiiiiii@Base 2.11.2
 _ZN13QsciScintilla14handleUpdateUIEi@Base 2.11.2
 _ZN13QsciScintilla14setExtraAscentEi@Base 2.11.2
 _ZN13QsciScintilla14setHotspotWrapEb@Base 2.11.2
 _ZN13QsciScintilla14setIndentationEii@Base 2.11.2
 _ZN13QsciScintilla14setMarginWidthEiRK7QString@Base 2.11.2
 _ZN13QsciScintilla14setMarginWidthEii@Base 2.11.2
 _ZN13QsciScintilla14setMarginsFontERK5QFont@Base 2.11.2
 _ZN13QsciScintilla14setScrollWidthEi@Base 2.11.2
 _ZN13QsciScintilla14setTabDrawModeENS_11TabDrawModeE@Base 2.11.2
 _ZN13QsciScintilla15autoIndentationEcl@Base 2.11.2
 _ZN13QsciScintilla15beginUndoActionEv@Base 2.11.2
 _ZN13QsciScintilla15clearMarginTextEi@Base 2.11.2
 _ZN13QsciScintilla15handleCharAddedEi@Base 2.11.2
 _ZN13QsciScintilla15indicatorDefineENS_14IndicatorStyleEi@Base 2.11.2
 _ZN13QsciScintilla15markerDeleteAllEi@Base 2.11.2
 _ZN13QsciScintilla15setExtraDescentEi@Base 2.11.2
 _ZN13QsciScintilla16clearAnnotationsEi@Base 2.11.2
 _ZN13QsciScintilla16clearEdgeColumnsEv@Base 2.11.2
 _ZN13QsciScintilla16contextMenuEventEP17QContextMenuEvent@Base 2.11.2
 _ZN13QsciScintilla16delete_selectionEv@Base 2.11.2
 _ZN13QsciScintilla16indicatorClickedEii6QFlagsIN2Qt16KeyboardModifierEE@Base 2.11.2
 _ZN13QsciScintilla16selectionChangedEv@Base 2.11.2
 _ZN13QsciScintilla16setBraceMatchingENS_10BraceMatchE@Base 2.11.2
 _ZN13QsciScintilla16setCallTipsStyleENS_13CallTipsStyleE@Base 2.11.2
 _ZN13QsciScintilla16setEnabledColorsEiR6QColorS1_@Base 2.11.2
 _ZN13QsciScintilla16setEolVisibilityEb@Base 2.11.2
 _ZN13QsciScintilla16setMarginOptionsEi@Base 2.11.2
 _ZN13QsciScintilla16setOverwriteModeEb@Base 2.11.2
 _ZN13QsciScintilla16staticMetaObjectE@Base 2.11.2
 _ZN13QsciScintilla17ensureLineVisibleEi@Base 2.11.2
 _ZN13QsciScintilla17findMatchingBraceERlS0_NS_10BraceMatchE@Base 2.11.2
 _ZN13QsciScintilla17gotoMatchingBraceEb@Base 2.11.2
 _ZN13QsciScintilla17handleMarginClickEiii@Base 2.11.2
 _ZN13QsciScintilla17indicatorReleasedEii6QFlagsIN2Qt16KeyboardModifierEE@Base 2.11.2
 _ZN13QsciScintilla17rangeIsWhitespaceEll@Base 2.11.2
 _ZN13QsciScintilla17setCursorPositionEii@Base 2.11.2
 _ZN13QsciScintilla17setSelectionToEolEb@Base 2.11.2
 _ZN13QsciScintilla17setWhitespaceSizeEi@Base 2.11.2
 _ZN13QsciScintilla17setWrapIndentModeENS_14WrapIndentModeE@Base 2.11.2
 _ZN13QsciScintilla17userListActivatedEiRK7QString@Base 2.11.2
 _ZN13QsciScintilla18fillIndicatorRangeEiiiii@Base 2.11.2
 _ZN13QsciScintilla18handleCallTipClickEi@Base 2.11.2
 _ZN13QsciScintilla18marginRightClickedEii6QFlagsIN2Qt16KeyboardModifierEE@Base 2.11.2
 _ZN13QsciScintilla18markerDeleteHandleEi@Base 2.11.2
 _ZN13QsciScintilla18removeSelectedTextEv@Base 2.11.2
 _ZN13QsciScintilla18setCallTipsVisibleEi@Base 2.11.2
 _ZN13QsciScintilla18setContractedFoldsERK5QListIiE@Base 2.11.2
 _ZN13QsciScintilla18setWrapVisualFlagsENS_14WrapVisualFlagES0_i@Base 2.11.2
 _ZN13QsciScintilla19autoCompleteFromAllEv@Base 2.11.2
 _ZN13QsciScintilla19clearIndicatorRangeEiiiii@Base 2.11.2
 _ZN13QsciScintilla19ensureCursorVisibleEv@Base 2.11.2
 _ZN13QsciScintilla19handleSavePointLeftEv@Base 2.11.2
 _ZN13QsciScintilla19maintainIndentationEcl@Base 2.11.2
 _ZN13QsciScintilla19modificationChangedEb@Base 2.11.2
 _ZN13QsciScintilla19moveToMatchingBraceEv@Base 2.11.2
 _ZN13QsciScintilla19replaceSelectedTextERK7QString@Base 2.11.2
 _ZN13QsciScintilla19setCallTipsPositionENS_16CallTipsPositionE@Base 2.11.2
 _ZN13QsciScintilla19setCaretLineVisibleEb@Base 2.11.2
 _ZN13QsciScintilla19setFirstVisibleLineEi@Base 2.11.2
 _ZN13QsciScintilla19setFoldMarginColorsERK6QColorS2_@Base 2.11.2
 _ZN13QsciScintilla19setHotspotUnderlineEb@Base 2.11.2
 _ZN13QsciScintilla19setIndentationWidthEi@Base 2.11.2
 _ZN13QsciScintilla19setMarginMarkerMaskEii@Base 2.11.2
 _ZN13QsciScintilla19startAutoCompletionENS_20AutoCompletionSourceEbb@Base 2.11.2
 _ZN13QsciScintilla20autoCompleteFromAPIsEv@Base 2.11.2
 _ZN13QsciScintilla20findFirstInSelectionERK7QStringbbbbbbb@Base 2.11.2
 _ZN13QsciScintilla20handleIndicatorClickEii@Base 2.11.2
 _ZN13QsciScintilla20handlePropertyChangeEPKcS1_@Base 2.11.2
 _ZN13QsciScintilla20setAnnotationDisplayENS_17AnnotationDisplayE@Base 2.11.2
 _ZN13QsciScintilla20setIndentationGuidesEb@Base 2.11.2
 _ZN13QsciScintilla20setMarginLineNumbersEib@Base 2.11.2
 _ZN13QsciScintilla20setMarginSensitivityEib@Base 2.11.2
 _ZN13QsciScintilla21clearRegisteredImagesEv@Base 2.11.2
 _ZN13QsciScintilla21cursorPositionChangedEii@Base 2.11.2
 _ZN13QsciScintilla21handleStyleFontChangeERK5QFonti@Base 2.11.2
 _ZN13QsciScintilla21modificationAttemptedEv@Base 2.11.2
 _ZN13QsciScintilla21resetFoldMarginColorsEv@Base 2.11.2
 _ZN13QsciScintilla21selectToMatchingBraceEv@Base 2.11.2
 _ZN13QsciScintilla21setBackspaceUnindentsEb@Base 2.11.2
 _ZN13QsciScintilla21setIndicatorDrawUnderEbi@Base 2.11.2
 _ZN13QsciScintilla22handleIndicatorReleaseEii@Base 2.11.2
 _ZN13QsciScintilla22handleMarginRightClickEiii@Base 2.11.2
 _ZN13QsciScintilla22handleSavePointReachedEv@Base 2.11.2
 _ZN13QsciScintilla22handleSelectionChangedEb@Base 2.11.2
 _ZN13QsciScintilla22handleStyleColorChangeERK6QColori@Base 2.11.2
 _ZN13QsciScintilla22handleStylePaperChangeERK6QColori@Base 2.11.2
 _ZN13QsciScintilla22setCaretLineFrameWidthEi@Base 2.11.2
 _ZN13QsciScintilla22setIndentationsUseTabsEb@Base 2.11.2
 _ZN13QsciScintilla22setIndicatorHoverStyleENS_14IndicatorStyleEi@Base 2.11.2
 _ZN13QsciScintilla22setScrollWidthTrackingEb@Base 2.11.2
 _ZN13QsciScintilla23handleUserListSelectionEPKci@Base 2.11.2
 _ZN13QsciScintilla23setAutoCompletionSourceENS_20AutoCompletionSourceE@Base 2.11.2
 _ZN13QsciScintilla23setCaretForegroundColorERK6QColor@Base 2.11.2
 _ZN13QsciScintilla23setWhitespaceVisibilityENS_20WhitespaceVisibilityE@Base 2.11.2
 _ZN13QsciScintilla24autoCompleteFromDocumentEv@Base 2.11.2
 _ZN13QsciScintilla24handleStyleEolFillChangeEbi@Base 2.11.2
 _ZN13QsciScintilla24setAutoCompletionFillupsEPKc@Base 2.11.2
 _ZN13QsciScintilla24setIndicatorOutlineColorERK6QColori@Base 2.11.2
 _ZN13QsciScintilla24setMarginBackgroundColorEiRK6QColor@Base 2.11.2
 _ZN13QsciScintilla24setMarkerBackgroundColorERK6QColori@Base 2.11.2
 _ZN13QsciScintilla24setMarkerForegroundColorERK6QColori@Base 2.11.2
 _ZN13QsciScintilla24setMatchedBraceIndicatorEi@Base 2.11.2
 _ZN13QsciScintilla25createStandardContextMenuEv@Base 2.11.2
 _ZN13QsciScintilla25setCallTipsHighlightColorERK6QColor@Base 2.11.2
 _ZN13QsciScintilla25setHotspotBackgroundColorERK6QColor@Base 2.11.2
 _ZN13QsciScintilla25setHotspotForegroundColorERK6QColor@Base 2.11.2
 _ZN13QsciScintilla25setMarginsBackgroundColorERK6QColor@Base 2.11.2
 _ZN13QsciScintilla25setMarginsForegroundColorERK6QColor@Base 2.11.2
 _ZN13QsciScintilla26resetMatchedBraceIndicatorEv@Base 2.11.2
 _ZN13QsciScintilla26setAutoCompletionThresholdEi@Base 2.11.2
 _ZN13QsciScintilla26setAutoCompletionUseSingleENS_23AutoCompletionUseSingleE@Base 2.11.2
 _ZN13QsciScintilla26setCallTipsBackgroundColorERK6QColor@Base 2.11.2
 _ZN13QsciScintilla26setCallTipsForegroundColorERK6QColor@Base 2.11.2
 _ZN13QsciScintilla26setUnmatchedBraceIndicatorEi@Base 2.11.2
 _ZN13QsciScintilla27resetHotspotBackgroundColorEv@Base 2.11.2
 _ZN13QsciScintilla27resetHotspotForegroundColorEv@Base 2.11.2
 _ZN13QsciScintilla27setAutoCompletionShowSingleEb@Base 2.11.2
 _ZN13QsciScintilla27setCaretLineBackgroundColorERK6QColor@Base 2.11.2
 _ZN13QsciScintilla27setIndicatorForegroundColorERK6QColori@Base 2.11.2
 _ZN13QsciScintilla27setSelectionBackgroundColorERK6QColor@Base 2.11.2
 _ZN13QsciScintilla27setSelectionForegroundColorERK6QColor@Base 2.11.2
 _ZN13QsciScintilla28resetUnmatchedBraceIndicatorEv@Base 2.11.2
 _ZN13QsciScintilla28setAutoCompletionReplaceWordEb@Base 2.11.2
 _ZN13QsciScintilla28setWhitespaceBackgroundColorERK6QColor@Base 2.11.2
 _ZN13QsciScintilla28setWhitespaceForegroundColorERK6QColor@Base 2.11.2
 _ZN13QsciScintilla29handleAutoCompletionSelectionEv@Base 2.11.2
 _ZN13QsciScintilla29resetSelectionBackgroundColorEv@Base 2.11.2
 _ZN13QsciScintilla29resetSelectionForegroundColorEv@Base 2.11.2
 _ZN13QsciScintilla30setMatchedBraceBackgroundColorERK6QColor@Base 2.11.2
 _ZN13QsciScintilla30setMatchedBraceForegroundColorERK6QColor@Base 2.11.2
 _ZN13QsciScintilla31setAutoCompletionFillupsEnabledEb@Base 2.11.2
 _ZN13QsciScintilla31setAutoCompletionWordSeparatorsERK11QStringList@Base 2.11.2
 _ZN13QsciScintilla32setAutoCompletionCaseSensitivityEb@Base 2.11.2
 _ZN13QsciScintilla32setIndicatorHoverForegroundColorERK6QColori@Base 2.11.2
 _ZN13QsciScintilla32setUnmatchedBraceBackgroundColorERK6QColor@Base 2.11.2
 _ZN13QsciScintilla32setUnmatchedBraceForegroundColorERK6QColor@Base 2.11.2
 _ZN13QsciScintilla35setIndentationGuidesBackgroundColorERK6QColor@Base 2.11.2
 _ZN13QsciScintilla35setIndentationGuidesForegroundColorERK6QColor@Base 2.11.2
 _ZN13QsciScintilla3cutEv@Base 2.11.2
 _ZN13QsciScintilla4copyEv@Base 2.11.2
 _ZN13QsciScintilla4readEP9QIODevice@Base 2.11.2
 _ZN13QsciScintilla4redoEv@Base 2.11.2
 _ZN13QsciScintilla4undoEv@Base 2.11.2
 _ZN13QsciScintilla5clearEv@Base 2.11.2
 _ZN13QsciScintilla5eventEP6QEvent@Base 2.11.2
 _ZN13QsciScintilla5pasteEv@Base 2.11.2
 _ZN13QsciScintilla6appendERK7QString@Base 2.11.2
 _ZN13QsciScintilla6doFindEv@Base 2.11.2
 _ZN13QsciScintilla6indentEi@Base 2.11.2
 _ZN13QsciScintilla6insertERK7QString@Base 2.11.2
 _ZN13QsciScintilla6zoomInEi@Base 2.11.2
 _ZN13QsciScintilla6zoomInEv@Base 2.11.2
 _ZN13QsciScintilla6zoomToEi@Base 2.11.2
 _ZN13QsciScintilla7callTipEv@Base 2.11.2
 _ZN13QsciScintilla7foldAllEb@Base 2.11.2
 _ZN13QsciScintilla7recolorEii@Base 2.11.2
 _ZN13QsciScintilla7replaceERK7QString@Base 2.11.2
 _ZN13QsciScintilla7setFontERK5QFont@Base 2.11.2
 _ZN13QsciScintilla7setTextERK7QString@Base 2.11.2
 _ZN13QsciScintilla7setUtf8Eb@Base 2.11.2
 _ZN13QsciScintilla7zoomOutEi@Base 2.11.2
 _ZN13QsciScintilla7zoomOutEv@Base 2.11.2
 _ZN13QsciScintilla8annotateEiRK14QsciStyledText@Base 2.11.2
 _ZN13QsciScintilla8annotateEiRK5QListI14QsciStyledTextE@Base 2.11.2
 _ZN13QsciScintilla8annotateEiRK7QStringRK9QsciStyle@Base 2.11.2
 _ZN13QsciScintilla8annotateEiRK7QStringi@Base 2.11.2
 _ZN13QsciScintilla8ensureRWEv@Base 2.11.2
 _ZN13QsciScintilla8findNextEv@Base 2.11.2
 _ZN13QsciScintilla8foldLineEi@Base 2.11.2
 _ZN13QsciScintilla8insertAtERK7QStringii@Base 2.11.2
 _ZN13QsciScintilla8setColorERK6QColor@Base 2.11.2
 _ZN13QsciScintilla8setLexerEP9QsciLexer@Base 2.11.2
 _ZN13QsciScintilla8setPaperERK6QColor@Base 2.11.2
 _ZN13QsciScintilla8unindentEi@Base 2.11.2
 _ZN13QsciScintilla9findFirstERK7QStringbbbbbiibbb@Base 2.11.2
 _ZN13QsciScintilla9foldClickEii@Base 2.11.2
 _ZN13QsciScintilla9markerAddEii@Base 2.11.2
 _ZN13QsciScintilla9selectAllEb@Base 2.11.2
 _ZN13QsciScintilla9styleTextERK5QListI14QsciStyledTextEPPci@Base 2.11.2
 _ZN13QsciScintillaC1EP7QWidget@Base 2.11.2
 _ZN13QsciScintillaC2EP7QWidget@Base 2.11.2
 _ZN13QsciScintillaD0Ev@Base 2.11.2
 _ZN13QsciScintillaD1Ev@Base 2.11.2
 _ZN13QsciScintillaD2Ev@Base 2.11.2
 _ZN14QsciCommandSet12readSettingsER9QSettingsPKc@Base 2.11.2
 _ZN14QsciCommandSet13writeSettingsER9QSettingsPKc@Base 2.11.2
 _ZN14QsciCommandSet18clearAlternateKeysEv@Base 2.11.2
 _ZN14QsciCommandSet9clearKeysEv@Base 2.11.2
 _ZN14QsciCommandSetC1EP13QsciScintilla@Base 2.11.2
 _ZN14QsciCommandSetC2EP13QsciScintilla@Base 2.11.2
 _ZN14QsciCommandSetD1Ev@Base 2.11.2
 _ZN14QsciCommandSetD2Ev@Base 2.11.2
 _ZN14QsciLexerBatch11qt_metacallEN11QMetaObject4CallEiPPv@Base 2.11.2
 _ZN14QsciLexerBatch11qt_metacastEPKc@Base 2.11.2
 _ZN14QsciLexerBatch16staticMetaObjectE@Base 2.11.2
 _ZN14QsciLexerBatchC1EP7QObject@Base 2.11.2
 _ZN14QsciLexerBatchC2EP7QObject@Base 2.11.2
 _ZN14QsciLexerBatchD0Ev@Base 2.11.2
 _ZN14QsciLexerBatchD1Ev@Base 2.11.2
 _ZN14QsciLexerBatchD2Ev@Base 2.11.2
 _ZN14QsciLexerCMake11qt_metacallEN11QMetaObject4CallEiPPv@Base 2.11.2
 _ZN14QsciLexerCMake11qt_metacastEPKc@Base 2.11.2
 _ZN14QsciLexerCMake13setAtElsePropEv@Base 2.11.2
 _ZN14QsciLexerCMake13setFoldAtElseEb@Base 2.11.2
 _ZN14QsciLexerCMake14readPropertiesER9QSettingsRK7QString@Base 2.11.2
 _ZN14QsciLexerCMake16staticMetaObjectE@Base 2.11.2
 _ZN14QsciLexerCMake17refreshPropertiesEv@Base 2.11.2
 _ZN14QsciLexerCMakeC1EP7QObject@Base 2.11.2
 _ZN14QsciLexerCMakeC2EP7QObject@Base 2.11.2
 _ZN14QsciLexerCMakeD0Ev@Base 2.11.2
 _ZN14QsciLexerCMakeD1Ev@Base 2.11.2
 _ZN14QsciLexerCMakeD2Ev@Base 2.11.2
 _ZN14QsciLexerSpice11qt_metacallEN11QMetaObject4CallEiPPv@Base 2.11.2
 _ZN14QsciLexerSpice11qt_metacastEPKc@Base 2.11.2
 _ZN14QsciLexerSpice16staticMetaObjectE@Base 2.11.2
 _ZN14QsciLexerSpiceC1EP7QObject@Base 2.11.2
 _ZN14QsciLexerSpiceC2EP7QObject@Base 2.11.2
 _ZN14QsciLexerSpiceD0Ev@Base 2.11.2
 _ZN14QsciLexerSpiceD1Ev@Base 2.11.2
 _ZN14QsciLexerSpiceD2Ev@Base 2.11.2
 _ZN14QsciStyledTextC1ERK7QStringRK9QsciStyle@Base 2.11.2
 _ZN14QsciStyledTextC1ERK7QStringi@Base 2.11.2
 _ZN14QsciStyledTextC2ERK7QStringRK9QsciStyle@Base 2.11.2
 _ZN14QsciStyledTextC2ERK7QStringi@Base 2.11.2
 _ZN15QsciLexerCSharp11qt_metacallEN11QMetaObject4CallEiPPv@Base 2.11.2
 _ZN15QsciLexerCSharp11qt_metacastEPKc@Base 2.11.2
 _ZN15QsciLexerCSharp16staticMetaObjectE@Base 2.11.2
 _ZN15QsciLexerCSharpC1EP7QObject@Base 2.11.2
 _ZN15QsciLexerCSharpC2EP7QObject@Base 2.11.2
 _ZN15QsciLexerCSharpD0Ev@Base 2.11.2
 _ZN15QsciLexerCSharpD1Ev@Base 2.11.2
 _ZN15QsciLexerCSharpD2Ev@Base 2.11.2
 _ZN15QsciLexerCustom10setStylingEiRK9QsciStyle@Base 2.11.2
 _ZN15QsciLexerCustom10setStylingEii@Base 2.11.2
 _ZN15QsciLexerCustom11qt_metacallEN11QMetaObject4CallEiPPv@Base 2.11.2
 _ZN15QsciLexerCustom11qt_metacastEPKc@Base 2.11.2
 _ZN15QsciLexerCustom12startStylingEii@Base 2.11.2
 _ZN15QsciLexerCustom16staticMetaObjectE@Base 2.11.2
 _ZN15QsciLexerCustom17handleStyleNeededEi@Base 2.11.2
 _ZN15QsciLexerCustom9setEditorEP13QsciScintilla@Base 2.11.2
 _ZN15QsciLexerCustomC1EP7QObject@Base 2.11.2
 _ZN15QsciLexerCustomC2EP7QObject@Base 2.11.2
 _ZN15QsciLexerCustomD0Ev@Base 2.11.2
 _ZN15QsciLexerCustomD1Ev@Base 2.11.2
 _ZN15QsciLexerCustomD2Ev@Base 2.11.2
 _ZN15QsciLexerMatlab11qt_metacallEN11QMetaObject4CallEiPPv@Base 2.11.2
 _ZN15QsciLexerMatlab11qt_metacastEPKc@Base 2.11.2
 _ZN15QsciLexerMatlab16staticMetaObjectE@Base 2.11.2
 _ZN15QsciLexerMatlabC1EP7QObject@Base 2.11.2
 _ZN15QsciLexerMatlabC2EP7QObject@Base 2.11.2
 _ZN15QsciLexerMatlabD0Ev@Base 2.11.2
 _ZN15QsciLexerMatlabD1Ev@Base 2.11.2
 _ZN15QsciLexerMatlabD2Ev@Base 2.11.2
 _ZN15QsciLexerOctave11qt_metacallEN11QMetaObject4CallEiPPv@Base 2.11.2
 _ZN15QsciLexerOctave11qt_metacastEPKc@Base 2.11.2
 _ZN15QsciLexerOctave16staticMetaObjectE@Base 2.11.2
 _ZN15QsciLexerOctaveC1EP7QObject@Base 2.11.2
 _ZN15QsciLexerOctaveC2EP7QObject@Base 2.11.2
 _ZN15QsciLexerOctaveD0Ev@Base 2.11.2
 _ZN15QsciLexerOctaveD1Ev@Base 2.11.2
 _ZN15QsciLexerOctaveD2Ev@Base 2.11.2
 _ZN15QsciLexerPascal11qt_metacallEN11QMetaObject4CallEiPPv@Base 2.11.2
 _ZN15QsciLexerPascal11qt_metacastEPKc@Base 2.11.2
 _ZN15QsciLexerPascal14readPropertiesER9QSettingsRK7QString@Base 2.11.2
 _ZN15QsciLexerPascal14setCommentPropEv@Base 2.11.2
 _ZN15QsciLexerPascal14setCompactPropEv@Base 2.11.2
 _ZN15QsciLexerPascal14setFoldCompactEb@Base 2.11.2
 _ZN15QsciLexerPascal14setPreprocPropEv@Base 2.11.2
 _ZN15QsciLexerPascal15setFoldCommentsEb@Base 2.11.2
 _ZN15QsciLexerPascal16staticMetaObjectE@Base 2.11.2
 _ZN15QsciLexerPascal17refreshPropertiesEv@Base 2.11.2
 _ZN15QsciLexerPascal19setFoldPreprocessorEb@Base 2.11.2
 _ZN15QsciLexerPascal20setSmartHighlightingEb@Base 2.11.2
 _ZN15QsciLexerPascal21setSmartHighlightPropEv@Base 2.11.2
 _ZN15QsciLexerPascalC1EP7QObject@Base 2.11.2
 _ZN15QsciLexerPascalC2EP7QObject@Base 2.11.2
 _ZN15QsciLexerPascalD0Ev@Base 2.11.2
 _ZN15QsciLexerPascalD1Ev@Base 2.11.2
 _ZN15QsciLexerPascalD2Ev@Base 2.11.2
 _ZN15QsciLexerPython11qt_metacallEN11QMetaObject4CallEiPPv@Base 2.11.2
 _ZN15QsciLexerPython11qt_metacastEPKc@Base 2.11.2
 _ZN15QsciLexerPython12keywordClassE@Base 2.11.2
 _ZN15QsciLexerPython13setFoldQuotesEb@Base 2.11.2
 _ZN15QsciLexerPython13setQuotesPropEv@Base 2.11.2
 _ZN15QsciLexerPython14readPropertiesER9QSettingsRK7QString@Base 2.11.2
 _ZN15QsciLexerPython14setCommentPropEv@Base 2.11.2
 _ZN15QsciLexerPython14setCompactPropEv@Base 2.11.2
 _ZN15QsciLexerPython14setFoldCompactEb@Base 2.11.2
 _ZN15QsciLexerPython14setV3BytesPropEv@Base 2.11.2
 _ZN15QsciLexerPython15setFoldCommentsEb@Base 2.11.2
 _ZN15QsciLexerPython16setTabWhingePropEv@Base 2.11.2
 _ZN15QsciLexerPython16setV2UnicodePropEv@Base 2.11.2
 _ZN15QsciLexerPython16staticMetaObjectE@Base 2.11.2
 _ZN15QsciLexerPython17refreshPropertiesEv@Base 2.11.2
 _ZN15QsciLexerPython17setV3BytesAllowedEb@Base 2.11.2
 _ZN15QsciLexerPython19setV2UnicodeAllowedEb@Base 2.11.2
 _ZN15QsciLexerPython20setV3BinaryOctalPropEv@Base 2.11.2
 _ZN15QsciLexerPython21setIndentationWarningENS_18IndentationWarningE@Base 2.11.2
 _ZN15QsciLexerPython22setHighlightSubidsPropEv@Base 2.11.2
 _ZN15QsciLexerPython23setV3BinaryOctalAllowedEb@Base 2.11.2
 _ZN15QsciLexerPython25setStringsOverNewlinePropEv@Base 2.11.2
 _ZN15QsciLexerPython26setHighlightSubidentifiersEb@Base 2.11.2
 _ZN15QsciLexerPython28setStringsOverNewlineAllowedEb@Base 2.11.2
 _ZN15QsciLexerPythonC1EP7QObject@Base 2.11.2
 _ZN15QsciLexerPythonC2EP7QObject@Base 2.11.2
 _ZN15QsciLexerPythonD0Ev@Base 2.11.2
 _ZN15QsciLexerPythonD1Ev@Base 2.11.2
 _ZN15QsciLexerPythonD2Ev@Base 2.11.2
 _ZN15QsciLexerTekHex11qt_metacallEN11QMetaObject4CallEiPPv@Base 2.14.1
 _ZN15QsciLexerTekHex11qt_metacastEPKc@Base 2.14.1
 _ZN15QsciLexerTekHex16staticMetaObjectE@Base 2.14.1
 _ZN15QsciLexerTekHexC1EP7QObject@Base 2.14.1
 _ZN15QsciLexerTekHexC2EP7QObject@Base 2.14.1
 _ZN15QsciLexerTekHexD0Ev@Base 2.14.1
 _ZN15QsciLexerTekHexD1Ev@Base 2.14.1
 _ZN15QsciLexerTekHexD2Ev@Base 2.14.1
 _ZN16QsciAbstractAPIs11qt_metacallEN11QMetaObject4CallEiPPv@Base 2.11.2
 _ZN16QsciAbstractAPIs11qt_metacastEPKc@Base 2.11.2
 _ZN16QsciAbstractAPIs16staticMetaObjectE@Base 2.11.2
 _ZN16QsciAbstractAPIs22autoCompletionSelectedERK7QString@Base 2.11.2
 _ZN16QsciAbstractAPIsC1EP9QsciLexer@Base 2.11.2
 _ZN16QsciAbstractAPIsC2EP9QsciLexer@Base 2.11.2
 _ZN16QsciAbstractAPIsD0Ev@Base 2.11.2
 _ZN16QsciAbstractAPIsD1Ev@Base 2.11.2
 _ZN16QsciAbstractAPIsD2Ev@Base 2.11.2
 _ZN16QsciLexerEDIFACT11qt_metacallEN11QMetaObject4CallEiPPv@Base 2.11.2
 _ZN16QsciLexerEDIFACT11qt_metacastEPKc@Base 2.11.2
 _ZN16QsciLexerEDIFACT16staticMetaObjectE@Base 2.11.2
 _ZN16QsciLexerEDIFACTC1EP7QObject@Base 2.11.2
 _ZN16QsciLexerEDIFACTC2EP7QObject@Base 2.11.2
 _ZN16QsciLexerEDIFACTD0Ev@Base 2.11.2
 _ZN16QsciLexerEDIFACTD1Ev@Base 2.11.2
 _ZN16QsciLexerEDIFACTD2Ev@Base 2.11.2
 _ZN16QsciLexerFortran11qt_metacallEN11QMetaObject4CallEiPPv@Base 2.11.2
 _ZN16QsciLexerFortran11qt_metacastEPKc@Base 2.11.2
 _ZN16QsciLexerFortran16staticMetaObjectE@Base 2.11.2
 _ZN16QsciLexerFortranC1EP7QObject@Base 2.11.2
 _ZN16QsciLexerFortranC2EP7QObject@Base 2.11.2
 _ZN16QsciLexerFortranD0Ev@Base 2.11.2
 _ZN16QsciLexerFortranD1Ev@Base 2.11.2
 _ZN16QsciLexerFortranD2Ev@Base 2.11.2
 _ZN16QsciLexerVerilog11qt_metacallEN11QMetaObject4CallEiPPv@Base 2.11.2
 _ZN16QsciLexerVerilog11qt_metacastEPKc@Base 2.11.2
 _ZN16QsciLexerVerilog13setAtElsePropEv@Base 2.11.2
 _ZN16QsciLexerVerilog13setFoldAtElseEb@Base 2.11.2
 _ZN16QsciLexerVerilog14readPropertiesER9QSettingsRK7QString@Base 2.11.2
 _ZN16QsciLexerVerilog14setCommentPropEv@Base 2.11.2
 _ZN16QsciLexerVerilog14setCompactPropEv@Base 2.11.2
 _ZN16QsciLexerVerilog14setFoldCompactEb@Base 2.11.2
 _ZN16QsciLexerVerilog14setPreprocPropEv@Base 2.11.2
 _ZN16QsciLexerVerilog15setAtModulePropEv@Base 2.11.2
 _ZN16QsciLexerVerilog15setFoldAtModuleEb@Base 2.11.2
 _ZN16QsciLexerVerilog15setFoldCommentsEb@Base 2.11.2
 _ZN16QsciLexerVerilog16staticMetaObjectE@Base 2.11.2
 _ZN16QsciLexerVerilog17refreshPropertiesEv@Base 2.11.2
 _ZN16QsciLexerVerilog19setFoldPreprocessorEb@Base 2.11.2
 _ZN16QsciLexerVerilogC1EP7QObject@Base 2.11.2
 _ZN16QsciLexerVerilogC2EP7QObject@Base 2.11.2
 _ZN16QsciLexerVerilogD0Ev@Base 2.11.2
 _ZN16QsciLexerVerilogD1Ev@Base 2.11.2
 _ZN16QsciLexerVerilogD2Ev@Base 2.11.2
 _ZN17QsciLexerIntelHex11qt_metacallEN11QMetaObject4CallEiPPv@Base 2.14.1
 _ZN17QsciLexerIntelHex11qt_metacastEPKc@Base 2.14.1
 _ZN17QsciLexerIntelHex16staticMetaObjectE@Base 2.14.1
 _ZN17QsciLexerIntelHexC1EP7QObject@Base 2.14.1
 _ZN17QsciLexerIntelHexC2EP7QObject@Base 2.14.1
 _ZN17QsciLexerIntelHexD0Ev@Base 2.14.1
 _ZN17QsciLexerIntelHexD1Ev@Base 2.14.1
 _ZN17QsciLexerIntelHexD2Ev@Base 2.14.1
 _ZN17QsciLexerMakefile11qt_metacallEN11QMetaObject4CallEiPPv@Base 2.11.2
 _ZN17QsciLexerMakefile11qt_metacastEPKc@Base 2.11.2
 _ZN17QsciLexerMakefile16staticMetaObjectE@Base 2.11.2
 _ZN17QsciLexerMakefileC1EP7QObject@Base 2.11.2
 _ZN17QsciLexerMakefileC2EP7QObject@Base 2.11.2
 _ZN17QsciLexerMakefileD0Ev@Base 2.11.2
 _ZN17QsciLexerMakefileD1Ev@Base 2.11.2
 _ZN17QsciLexerMakefileD2Ev@Base 2.11.2
 _ZN17QsciLexerMarkdown11qt_metacallEN11QMetaObject4CallEiPPv@Base 2.11.2
 _ZN17QsciLexerMarkdown11qt_metacastEPKc@Base 2.11.2
 _ZN17QsciLexerMarkdown16staticMetaObjectE@Base 2.11.2
 _ZN17QsciLexerMarkdownC1EP7QObject@Base 2.11.2
 _ZN17QsciLexerMarkdownC2EP7QObject@Base 2.11.2
 _ZN17QsciLexerMarkdownD0Ev@Base 2.11.2
 _ZN17QsciLexerMarkdownD1Ev@Base 2.11.2
 _ZN17QsciLexerMarkdownD2Ev@Base 2.11.2
 _ZN17QsciScintillaBase10commandKeyEiRi@Base 2.11.2
 _ZN17QsciScintillaBase10paintEventEP11QPaintEvent@Base 2.11.2
 _ZN17QsciScintillaBase11SCEN_CHANGEEv@Base 2.11.2
 _ZN17QsciScintillaBase11SCN_FOCUSINEv@Base 2.11.2
 _ZN17QsciScintillaBase11SCN_PAINTEDEv@Base 2.11.2
 _ZN17QsciScintillaBase11changeEventEP6QEvent@Base 2.11.2
 _ZN17QsciScintillaBase11qt_metacallEN11QMetaObject4CallEiPPv@Base 2.11.2
 _ZN17QsciScintillaBase11qt_metacastEPKc@Base 2.11.2
 _ZN17QsciScintillaBase11resizeEventEP12QResizeEvent@Base 2.11.2
 _ZN17QsciScintillaBase12SCN_DWELLENDEiii@Base 2.11.2
 _ZN17QsciScintillaBase12SCN_FOCUSOUTEv@Base 2.11.2
 _ZN17QsciScintillaBase12SCN_MODIFIEDEiiPKciiiiiii@Base 2.11.2
 _ZN17QsciScintillaBase12SCN_UPDATEUIEi@Base 2.11.2
 _ZN17QsciScintillaBase12acceptActionEP10QDropEvent@Base 2.11.2
 _ZN17QsciScintillaBase12focusInEventEP11QFocusEvent@Base 2.11.2
 _ZN17QsciScintillaBase13SCN_CHARADDEDEi@Base 2.11.2
 _ZN17QsciScintillaBase13SCN_NEEDSHOWNEii@Base 2.11.2
 _ZN17QsciScintillaBase13dragMoveEventEP14QDragMoveEvent@Base 2.11.2
 _ZN17QsciScintillaBase13focusOutEventEP11QFocusEvent@Base 2.11.2
 _ZN17QsciScintillaBase13keyPressEventEP9QKeyEvent@Base 2.11.2
 _ZN17QsciScintillaBase13setScrollBarsEv@Base 2.11.2
 _ZN17QsciScintillaBase14SCN_DWELLSTARTEiii@Base 2.11.2
 _ZN17QsciScintillaBase14SCN_URIDROPPEDERK4QUrl@Base 2.11.2
 _ZN17QsciScintillaBase14dragEnterEventEP15QDragEnterEvent@Base 2.11.2
 _ZN17QsciScintillaBase14dragLeaveEventEP15QDragLeaveEvent@Base 2.11.2
 _ZN17QsciScintillaBase14eventModifiersEP11QMouseEvent@Base 2.11.2
 _ZN17QsciScintillaBase14mouseMoveEventEP11QMouseEvent@Base 2.11.2
 _ZN17QsciScintillaBase15QSCN_SELCHANGEDEb@Base 2.11.2
 _ZN17QsciScintillaBase15SCN_DOUBLECLICKEiii@Base 2.11.2
 _ZN17QsciScintillaBase15SCN_MACRORECORDEjmPv@Base 2.11.2
 _ZN17QsciScintillaBase15SCN_MARGINCLICKEiii@Base 2.11.2
 _ZN17QsciScintillaBase15SCN_STYLENEEDEDEi@Base 2.11.2
 _ZN17QsciScintillaBase15mousePressEventEP11QMouseEvent@Base 2.11.2
 _ZN17QsciScintillaBase16SCN_CALLTIPCLICKEi@Base 2.11.2
 _ZN17QsciScintillaBase16SCN_HOTSPOTCLICKEii@Base 2.11.2
 _ZN17QsciScintillaBase16contextMenuEventEP17QContextMenuEvent@Base 2.11.2
 _ZN17QsciScintillaBase16inputMethodEventEP17QInputMethodEvent@Base 2.11.2
 _ZN17QsciScintillaBase16scrollContentsByEii@Base 2.11.2
 _ZN17QsciScintillaBase16staticMetaObjectE@Base 2.11.2
 _ZN17QsciScintillaBase17SCN_SAVEPOINTLEFTEv@Base 2.11.2
 _ZN17QsciScintillaBase17mouseReleaseEventEP11QMouseEvent@Base 2.11.2
 _ZN17QsciScintillaBase18SCN_AUTOCCANCELLEDEv@Base 2.11.2
 _ZN17QsciScintillaBase18SCN_AUTOCCOMPLETEDEPKciii@Base 2.11.2
 _ZN17QsciScintillaBase18SCN_AUTOCSELECTIONEPKci@Base 2.11.2
 _ZN17QsciScintillaBase18SCN_AUTOCSELECTIONEPKciii@Base 2.11.2
 _ZN17QsciScintillaBase18SCN_INDICATORCLICKEii@Base 2.11.2
 _ZN17QsciScintillaBase18focusNextPrevChildEb@Base 2.11.2
 _ZN17QsciScintillaBase19SCN_MODIFYATTEMPTROEv@Base 2.11.2
 _ZN17QsciScintillaBase20SCN_AUTOCCHARDELETEDEv@Base 2.11.2
 _ZN17QsciScintillaBase20SCN_INDICATORRELEASEEii@Base 2.11.2
 _ZN17QsciScintillaBase20SCN_MARGINRIGHTCLICKEiii@Base 2.11.2
 _ZN17QsciScintillaBase20SCN_SAVEPOINTREACHEDEv@Base 2.11.2
 _ZN17QsciScintillaBase21SCN_USERLISTSELECTIONEPKci@Base 2.11.2
 _ZN17QsciScintillaBase21SCN_USERLISTSELECTIONEPKciii@Base 2.11.2
 _ZN17QsciScintillaBase21SCN_USERLISTSELECTIONEPKciiii@Base 2.11.2
 _ZN17QsciScintillaBase21mouseDoubleClickEventEP11QMouseEvent@Base 2.11.2
 _ZN17QsciScintillaBase22SCN_HOTSPOTDOUBLECLICKEii@Base 2.11.2
 _ZN17QsciScintillaBase23SCN_HOTSPOTRELEASECLICKEii@Base 2.11.2
 _ZN17QsciScintillaBase24SCN_AUTOCSELECTIONCHANGEEPKcii@Base 2.11.2
 _ZN17QsciScintillaBase24connectVerticalScrollBarEv@Base 2.11.2
 _ZN17QsciScintillaBase24replaceVerticalScrollBarEP10QScrollBar@Base 2.11.2
 _ZN17QsciScintillaBase26connectHorizontalScrollBarEv@Base 2.11.2
 _ZN17QsciScintillaBase26replaceHorizontalScrollBarEP10QScrollBar@Base 2.11.2
 _ZN17QsciScintillaBase4poolEv@Base 2.11.2
 _ZN17QsciScintillaBase8SCN_ZOOMEv@Base 2.11.2
 _ZN17QsciScintillaBase9dropEventEP10QDropEvent@Base 2.11.2
 _ZN17QsciScintillaBase9handleHSbEi@Base 2.11.2
 _ZN17QsciScintillaBase9handleVSbEi@Base 2.11.2
 _ZN17QsciScintillaBaseC1EP7QWidget@Base 2.11.2
 _ZN17QsciScintillaBaseC2EP7QWidget@Base 2.11.2
 _ZN17QsciScintillaBaseD0Ev@Base 2.11.2
 _ZN17QsciScintillaBaseD1Ev@Base 2.11.2
 _ZN17QsciScintillaBaseD2Ev@Base 2.11.2
 _ZN18QsciLexerFortran7711qt_metacallEN11QMetaObject4CallEiPPv@Base 2.11.2
 _ZN18QsciLexerFortran7711qt_metacastEPKc@Base 2.11.2
 _ZN18QsciLexerFortran7714readPropertiesER9QSettingsRK7QString@Base 2.11.2
 _ZN18QsciLexerFortran7714setCompactPropEv@Base 2.11.2
 _ZN18QsciLexerFortran7714setFoldCompactEb@Base 2.11.2
 _ZN18QsciLexerFortran7716staticMetaObjectE@Base 2.11.2
 _ZN18QsciLexerFortran7717refreshPropertiesEv@Base 2.11.2
 _ZN18QsciLexerFortran77C1EP7QObject@Base 2.11.2
 _ZN18QsciLexerFortran77C2EP7QObject@Base 2.11.2
 _ZN18QsciLexerFortran77D0Ev@Base 2.11.2
 _ZN18QsciLexerFortran77D1Ev@Base 2.11.2
 _ZN18QsciLexerFortran77D2Ev@Base 2.11.2
 _ZN19QsciLexerJavaScript11qt_metacallEN11QMetaObject4CallEiPPv@Base 2.11.2
 _ZN19QsciLexerJavaScript11qt_metacastEPKc@Base 2.11.2
 _ZN19QsciLexerJavaScript12keywordClassE@Base 2.11.2
 _ZN19QsciLexerJavaScript16staticMetaObjectE@Base 2.11.2
 _ZN19QsciLexerJavaScriptC1EP7QObject@Base 2.11.2
 _ZN19QsciLexerJavaScriptC2EP7QObject@Base 2.11.2
 _ZN19QsciLexerJavaScriptD0Ev@Base 2.11.2
 _ZN19QsciLexerJavaScriptD1Ev@Base 2.11.2
 _ZN19QsciLexerJavaScriptD2Ev@Base 2.11.2
 _ZN19QsciLexerPostScript11qt_metacallEN11QMetaObject4CallEiPPv@Base 2.11.2
 _ZN19QsciLexerPostScript11qt_metacastEPKc@Base 2.11.2
 _ZN19QsciLexerPostScript11setTokenizeEb@Base 2.11.2
 _ZN19QsciLexerPostScript12setLevelPropEv@Base 2.11.2
 _ZN19QsciLexerPostScript13setAtElsePropEv@Base 2.11.2
 _ZN19QsciLexerPostScript13setFoldAtElseEb@Base 2.11.2
 _ZN19QsciLexerPostScript14readPropertiesER9QSettingsRK7QString@Base 2.11.2
 _ZN19QsciLexerPostScript14setCompactPropEv@Base 2.11.2
 _ZN19QsciLexerPostScript14setFoldCompactEb@Base 2.11.2
 _ZN19QsciLexerPostScript15setTokenizePropEv@Base 2.11.2
 _ZN19QsciLexerPostScript16staticMetaObjectE@Base 2.11.2
 _ZN19QsciLexerPostScript17refreshPropertiesEv@Base 2.11.2
 _ZN19QsciLexerPostScript8setLevelEi@Base 2.11.2
 _ZN19QsciLexerPostScriptC1EP7QObject@Base 2.11.2
 _ZN19QsciLexerPostScriptC2EP7QObject@Base 2.11.2
 _ZN19QsciLexerPostScriptD0Ev@Base 2.11.2
 _ZN19QsciLexerPostScriptD1Ev@Base 2.11.2
 _ZN19QsciLexerPostScriptD2Ev@Base 2.11.2
 _ZN19QsciLexerProperties11qt_metacallEN11QMetaObject4CallEiPPv@Base 2.11.2
 _ZN19QsciLexerProperties11qt_metacastEPKc@Base 2.11.2
 _ZN19QsciLexerProperties14readPropertiesER9QSettingsRK7QString@Base 2.11.2
 _ZN19QsciLexerProperties14setCompactPropEv@Base 2.11.2
 _ZN19QsciLexerProperties14setFoldCompactEb@Base 2.11.2
 _ZN19QsciLexerProperties16setInitialSpacesEb@Base 2.11.2
 _ZN19QsciLexerProperties16staticMetaObjectE@Base 2.11.2
 _ZN19QsciLexerProperties17refreshPropertiesEv@Base 2.11.2
 _ZN19QsciLexerProperties20setInitialSpacesPropEv@Base 2.11.2
 _ZN19QsciLexerPropertiesC1EP7QObject@Base 2.11.2
 _ZN19QsciLexerPropertiesC2EP7QObject@Base 2.11.2
 _ZN19QsciLexerPropertiesD0Ev@Base 2.11.2
 _ZN19QsciLexerPropertiesD1Ev@Base 2.11.2
 _ZN19QsciLexerPropertiesD2Ev@Base 2.11.2
 _ZN21QsciLexerCoffeeScript11qt_metacallEN11QMetaObject4CallEiPPv@Base 2.11.2
 _ZN21QsciLexerCoffeeScript11qt_metacastEPKc@Base 2.11.2
 _ZN21QsciLexerCoffeeScript14readPropertiesER9QSettingsRK7QString@Base 2.11.2
 _ZN21QsciLexerCoffeeScript14setCommentPropEv@Base 2.11.2
 _ZN21QsciLexerCoffeeScript14setCompactPropEv@Base 2.11.2
 _ZN21QsciLexerCoffeeScript14setDollarsPropEv@Base 2.11.2
 _ZN21QsciLexerCoffeeScript14setFoldCompactEb@Base 2.11.2
 _ZN21QsciLexerCoffeeScript15setFoldCommentsEb@Base 2.11.2
 _ZN21QsciLexerCoffeeScript16staticMetaObjectE@Base 2.11.2
 _ZN21QsciLexerCoffeeScript17refreshPropertiesEv@Base 2.11.2
 _ZN21QsciLexerCoffeeScript17setDollarsAllowedEb@Base 2.11.2
 _ZN21QsciLexerCoffeeScript19setStylePreprocPropEv@Base 2.11.2
 _ZN21QsciLexerCoffeeScript20setStylePreprocessorEb@Base 2.11.2
 _ZN21QsciLexerCoffeeScriptC1EP7QObject@Base 2.11.2
 _ZN21QsciLexerCoffeeScriptC2EP7QObject@Base 2.11.2
 _ZN21QsciLexerCoffeeScriptD0Ev@Base 2.11.2
 _ZN21QsciLexerCoffeeScriptD1Ev@Base 2.11.2
 _ZN21QsciLexerCoffeeScriptD2Ev@Base 2.11.2
 _ZN8QsciAPIs11qt_metacallEN11QMetaObject4CallEiPPv@Base 2.11.2
 _ZN8QsciAPIs11qt_metacastEPKc@Base 2.11.2
 _ZN8QsciAPIs12deleteWorkerEv@Base 2.11.2
 _ZN8QsciAPIs12enoughCommasERK7QStringi@Base 2.11.2
 _ZN8QsciAPIs12loadPreparedERK7QString@Base 2.11.2
 _ZN8QsciAPIs13addAPIEntriesERK5QListI5QPairIjjEEbR11QStringListRb@Base 2.11.2
 _ZN8QsciAPIs14positionOriginERK11QStringListR7QString@Base 2.11.2
 _ZN8QsciAPIs15lastPartialWordERK7QStringR11QStringListRb@Base 2.11.2
 _ZN8QsciAPIs16lastCompleteWordERK7QStringR11QStringListRb@Base 2.11.2
 _ZN8QsciAPIs16originStartsWithERK7QStringS2_@Base 2.11.2
 _ZN8QsciAPIs16staticMetaObjectE@Base 2.11.2
 _ZN8QsciAPIs17cancelPreparationEv@Base 2.11.2
 _ZN8QsciAPIs21apiPreparationStartedEv@Base 2.11.2
 _ZN8QsciAPIs22apiPreparationFinishedEv@Base 2.11.2
 _ZN8QsciAPIs22autoCompletionSelectedERK7QString@Base 2.11.2
 _ZN8QsciAPIs23apiPreparationCancelledEv@Base 2.11.2
 _ZN8QsciAPIs24updateAutoCompletionListERK11QStringListRS0_@Base 2.11.2
 _ZN8QsciAPIs3addERK7QString@Base 2.11.2
 _ZN8QsciAPIs4loadERK7QString@Base 2.11.2
 _ZN8QsciAPIs5clearEv@Base 2.11.2
 _ZN8QsciAPIs5eventEP6QEvent@Base 2.11.2
 _ZN8QsciAPIs6removeERK7QString@Base 2.11.2
 _ZN8QsciAPIs7prepareEv@Base 2.11.2
 _ZN8QsciAPIs8callTipsERK11QStringListiN13QsciScintilla13CallTipsStyleER5QListIiE@Base 2.11.2
 _ZN8QsciAPIsC1EP9QsciLexer@Base 2.11.2
 _ZN8QsciAPIsC2EP9QsciLexer@Base 2.11.2
 _ZN8QsciAPIsD0Ev@Base 2.11.2
 _ZN8QsciAPIsD1Ev@Base 2.11.2
 _ZN8QsciAPIsD2Ev@Base 2.11.2
 _ZN9QsciLexer10setEolFillEbi@Base 2.11.2
 _ZN9QsciLexer11fontChangedERK5QFonti@Base 2.11.2
 _ZN9QsciLexer11qt_metacallEN11QMetaObject4CallEiPPv@Base 2.11.2
 _ZN9QsciLexer11qt_metacastEPKc@Base 2.11.2
 _ZN9QsciLexer12colorChangedERK6QColori@Base 2.11.2
 _ZN9QsciLexer12paperChangedERK6QColori@Base 2.11.2
 _ZN9QsciLexer12readSettingsER9QSettingsPKc@Base 2.11.2
 _ZN9QsciLexer14eolFillChangedEbi@Base 2.11.2
 _ZN9QsciLexer14readPropertiesER9QSettingsRK7QString@Base 2.11.2
 _ZN9QsciLexer14setDefaultFontERK5QFont@Base 2.11.2
 _ZN9QsciLexer15autoIndentStyleEv@Base 2.11.2
 _ZN9QsciLexer15propertyChangedEPKcS1_@Base 2.11.2
 _ZN9QsciLexer15setDefaultColorERK6QColor@Base 2.11.2
 _ZN9QsciLexer15setDefaultPaperERK6QColor@Base 2.11.2
 _ZN9QsciLexer16staticMetaObjectE@Base 2.11.2
 _ZN9QsciLexer17refreshPropertiesEv@Base 2.11.2
 _ZN9QsciLexer18setAutoIndentStyleEi@Base 2.11.2
 _ZN9QsciLexer7setAPIsEP16QsciAbstractAPIs@Base 2.11.2
 _ZN9QsciLexer7setFontERK5QFonti@Base 2.11.2
 _ZN9QsciLexer8setColorERK6QColori@Base 2.11.2
 _ZN9QsciLexer8setPaperERK6QColori@Base 2.11.2
 _ZN9QsciLexer9setEditorEP13QsciScintilla@Base 2.11.2
 _ZN9QsciLexerC1EP7QObject@Base 2.11.2
 _ZN9QsciLexerC2EP7QObject@Base 2.11.2
 _ZN9QsciLexerD0Ev@Base 2.11.2
 _ZN9QsciLexerD1Ev@Base 2.11.2
 _ZN9QsciLexerD2Ev@Base 2.11.2
 _ZN9QsciMacro11qt_metacallEN11QMetaObject4CallEiPPv@Base 2.11.2
 _ZN9QsciMacro11qt_metacastEPKc@Base 2.11.2
 _ZN9QsciMacro12endRecordingEv@Base 2.11.2
 _ZN9QsciMacro14startRecordingEv@Base 2.11.2
 _ZN9QsciMacro16staticMetaObjectE@Base 2.11.2
 _ZN9QsciMacro4loadERK7QString@Base 2.11.2
 _ZN9QsciMacro4playEv@Base 2.11.2
 _ZN9QsciMacro5clearEv@Base 2.11.2
 _ZN9QsciMacro6recordEjmPv@Base 2.11.2
 _ZN9QsciMacroC1EP13QsciScintilla@Base 2.11.2
 _ZN9QsciMacroC1ERK7QStringP13QsciScintilla@Base 2.11.2
 _ZN9QsciMacroC2EP13QsciScintilla@Base 2.11.2
 _ZN9QsciMacroC2ERK7QStringP13QsciScintilla@Base 2.11.2
 _ZN9QsciMacroD0Ev@Base 2.11.2
 _ZN9QsciMacroD1Ev@Base 2.11.2
 _ZN9QsciMacroD2Ev@Base 2.11.2
 _ZN9QsciStyle10setEolFillEb@Base 2.11.2
 _ZN9QsciStyle10setHotspotEb@Base 2.11.2
 _ZN9QsciStyle10setVisibleEb@Base 2.11.2
 _ZN9QsciStyle11setTextCaseENS_8TextCaseE@Base 2.11.2
 _ZN9QsciStyle13setChangeableEb@Base 2.11.2
 _ZN9QsciStyle4initEi@Base 2.11.2
 _ZN9QsciStyle7refreshEv@Base 2.11.2
 _ZN9QsciStyle7setFontERK5QFont@Base 2.11.2
 _ZN9QsciStyle8setColorERK6QColor@Base 2.11.2
 _ZN9QsciStyle8setPaperERK6QColor@Base 2.11.2
 _ZN9QsciStyleC1Ei@Base 2.11.2
 _ZN9QsciStyleC1EiRK7QStringRK6QColorS5_RK5QFontb@Base 2.11.2
 _ZN9QsciStyleC2Ei@Base 2.11.2
 _ZN9QsciStyleC2EiRK7QStringRK6QColorS5_RK5QFontb@Base 2.11.2
 _ZNK10QsciLexerD10blockStartEPi@Base 2.11.2
 _ZNK10QsciLexerD10braceStyleEv@Base 2.11.2
 _ZNK10QsciLexerD10foldAtElseEv@Base 2.11.2
 _ZNK10QsciLexerD10metaObjectEv@Base 2.11.2
 _ZNK10QsciLexerD11defaultFontEi@Base 2.11.2
 _ZNK10QsciLexerD11descriptionEi@Base 2.11.2
 _ZNK10QsciLexerD11foldCompactEv@Base 2.11.2
 _ZNK10QsciLexerD12defaultColorEi@Base 2.11.2
 _ZNK10QsciLexerD12defaultPaperEi@Base 2.11.2
 _ZNK10QsciLexerD12foldCommentsEv@Base 2.11.2
 _ZNK10QsciLexerD14defaultEolFillEi@Base 2.11.2
 _ZNK10QsciLexerD14wordCharactersEv@Base 2.11.2
 _ZNK10QsciLexerD15writePropertiesER9QSettingsRK7QString@Base 2.11.2
 _ZNK10QsciLexerD17blockStartKeywordEPi@Base 2.11.2
 _ZNK10QsciLexerD28autoCompletionWordSeparatorsEv@Base 2.11.2
 _ZNK10QsciLexerD5lexerEv@Base 2.11.2
 _ZNK10QsciLexerD8blockEndEPi@Base 2.11.2
 _ZNK10QsciLexerD8keywordsEi@Base 2.11.2
 _ZNK10QsciLexerD8languageEv@Base 2.11.2
 _ZNK11QsciCommand11descriptionEv@Base 2.11.2
 _ZNK11QsciLexerPO10metaObjectEv@Base 2.11.2
 _ZNK11QsciLexerPO11defaultFontEi@Base 2.11.2
 _ZNK11QsciLexerPO11descriptionEi@Base 2.11.2
 _ZNK11QsciLexerPO11foldCompactEv@Base 2.11.2
 _ZNK11QsciLexerPO12defaultColorEi@Base 2.11.2
 _ZNK11QsciLexerPO12foldCommentsEv@Base 2.11.2
 _ZNK11QsciLexerPO15writePropertiesER9QSettingsRK7QString@Base 2.11.2
 _ZNK11QsciLexerPO5lexerEv@Base 2.11.2
 _ZNK11QsciLexerPO8languageEv@Base 2.11.2
 _ZNK12QsciDocument10isModifiedEv@Base 2.11.2
 _ZNK12QsciLexerAVS10braceStyleEv@Base 2.11.2
 _ZNK12QsciLexerAVS10metaObjectEv@Base 2.11.2
 _ZNK12QsciLexerAVS11defaultFontEi@Base 2.11.2
 _ZNK12QsciLexerAVS11descriptionEi@Base 2.11.2
 _ZNK12QsciLexerAVS11foldCompactEv@Base 2.11.2
 _ZNK12QsciLexerAVS12defaultColorEi@Base 2.11.2
 _ZNK12QsciLexerAVS12foldCommentsEv@Base 2.11.2
 _ZNK12QsciLexerAVS14wordCharactersEv@Base 2.11.2
 _ZNK12QsciLexerAVS15writePropertiesER9QSettingsRK7QString@Base 2.11.2
 _ZNK12QsciLexerAVS5lexerEv@Base 2.11.2
 _ZNK12QsciLexerAVS8keywordsEi@Base 2.11.2
 _ZNK12QsciLexerAVS8languageEv@Base 2.11.2
 _ZNK12QsciLexerAsm10metaObjectEv@Base 2.14.1
 _ZNK12QsciLexerAsm11defaultFontEi@Base 2.14.1
 _ZNK12QsciLexerAsm11descriptionEi@Base 2.14.1
 _ZNK12QsciLexerAsm11foldCompactEv@Base 2.14.1
 _ZNK12QsciLexerAsm12defaultColorEi@Base 2.14.1
 _ZNK12QsciLexerAsm12defaultPaperEi@Base 2.14.1
 _ZNK12QsciLexerAsm12foldCommentsEv@Base 2.14.1
 _ZNK12QsciLexerAsm14defaultEolFillEi@Base 2.14.1
 _ZNK12QsciLexerAsm15foldSyntaxBasedEv@Base 2.14.1
 _ZNK12QsciLexerAsm15writePropertiesER9QSettingsRK7QString@Base 2.14.1
 _ZNK12QsciLexerAsm16commentDelimiterEv@Base 2.14.1
 _ZNK12QsciLexerAsm8keywordsEi@Base 2.14.1
 _ZNK12QsciLexerCPP10blockStartEPi@Base 2.11.2
 _ZNK12QsciLexerCPP10braceStyleEv@Base 2.11.2
 _ZNK12QsciLexerCPP10metaObjectEv@Base 2.11.2
 _ZNK12QsciLexerCPP11defaultFontEi@Base 2.11.2
 _ZNK12QsciLexerCPP11descriptionEi@Base 2.11.2
 _ZNK12QsciLexerCPP12defaultColorEi@Base 2.11.2
 _ZNK12QsciLexerCPP12defaultPaperEi@Base 2.11.2
 _ZNK12QsciLexerCPP14defaultEolFillEi@Base 2.11.2
 _ZNK12QsciLexerCPP14wordCharactersEv@Base 2.11.2
 _ZNK12QsciLexerCPP15writePropertiesER9QSettingsRK7QString@Base 2.11.2
 _ZNK12QsciLexerCPP17blockStartKeywordEPi@Base 2.11.2
 _ZNK12QsciLexerCPP28autoCompletionWordSeparatorsEv@Base 2.11.2
 _ZNK12QsciLexerCPP5lexerEv@Base 2.11.2
 _ZNK12QsciLexerCPP8blockEndEPi@Base 2.11.2
 _ZNK12QsciLexerCPP8keywordsEi@Base 2.11.2
 _ZNK12QsciLexerCPP8languageEv@Base 2.11.2
 _ZNK12QsciLexerCSS10blockStartEPi@Base 2.11.2
 _ZNK12QsciLexerCSS10metaObjectEv@Base 2.11.2
 _ZNK12QsciLexerCSS11defaultFontEi@Base 2.11.2
 _ZNK12QsciLexerCSS11descriptionEi@Base 2.11.2
 _ZNK12QsciLexerCSS11foldCompactEv@Base 2.11.2
 _ZNK12QsciLexerCSS12defaultColorEi@Base 2.11.2
 _ZNK12QsciLexerCSS12foldCommentsEv@Base 2.11.2
 _ZNK12QsciLexerCSS14wordCharactersEv@Base 2.11.2
 _ZNK12QsciLexerCSS15writePropertiesER9QSettingsRK7QString@Base 2.11.2
 _ZNK12QsciLexerCSS5lexerEv@Base 2.11.2
 _ZNK12QsciLexerCSS8blockEndEPi@Base 2.11.2
 _ZNK12QsciLexerCSS8keywordsEi@Base 2.11.2
 _ZNK12QsciLexerCSS8languageEv@Base 2.11.2
 _ZNK12QsciLexerHex10metaObjectEv@Base 2.14.1
 _ZNK12QsciLexerHex11defaultFontEi@Base 2.14.1
 _ZNK12QsciLexerHex11descriptionEi@Base 2.14.1
 _ZNK12QsciLexerHex12defaultColorEi@Base 2.14.1
 _ZNK12QsciLexerHex12defaultPaperEi@Base 2.14.1
 _ZNK12QsciLexerIDL10metaObjectEv@Base 2.11.2
 _ZNK12QsciLexerIDL11descriptionEi@Base 2.11.2
 _ZNK12QsciLexerIDL12defaultColorEi@Base 2.11.2
 _ZNK12QsciLexerIDL8keywordsEi@Base 2.11.2
 _ZNK12QsciLexerIDL8languageEv@Base 2.11.2
 _ZNK12QsciLexerLua10blockStartEPi@Base 2.11.2
 _ZNK12QsciLexerLua10braceStyleEv@Base 2.11.2
 _ZNK12QsciLexerLua10metaObjectEv@Base 2.11.2
 _ZNK12QsciLexerLua11defaultFontEi@Base 2.11.2
 _ZNK12QsciLexerLua11descriptionEi@Base 2.11.2
 _ZNK12QsciLexerLua11foldCompactEv@Base 2.11.2
 _ZNK12QsciLexerLua12defaultColorEi@Base 2.11.2
 _ZNK12QsciLexerLua12defaultPaperEi@Base 2.11.2
 _ZNK12QsciLexerLua14defaultEolFillEi@Base 2.11.2
 _ZNK12QsciLexerLua15writePropertiesER9QSettingsRK7QString@Base 2.11.2
 _ZNK12QsciLexerLua28autoCompletionWordSeparatorsEv@Base 2.11.2
 _ZNK12QsciLexerLua5lexerEv@Base 2.11.2
 _ZNK12QsciLexerLua8keywordsEi@Base 2.11.2
 _ZNK12QsciLexerLua8languageEv@Base 2.11.2
 _ZNK12QsciLexerPOV10braceStyleEv@Base 2.11.2
 _ZNK12QsciLexerPOV10metaObjectEv@Base 2.11.2
 _ZNK12QsciLexerPOV11defaultFontEi@Base 2.11.2
 _ZNK12QsciLexerPOV11descriptionEi@Base 2.11.2
 _ZNK12QsciLexerPOV11foldCompactEv@Base 2.11.2
 _ZNK12QsciLexerPOV12defaultColorEi@Base 2.11.2
 _ZNK12QsciLexerPOV12defaultPaperEi@Base 2.11.2
 _ZNK12QsciLexerPOV12foldCommentsEv@Base 2.11.2
 _ZNK12QsciLexerPOV14defaultEolFillEi@Base 2.11.2
 _ZNK12QsciLexerPOV14foldDirectivesEv@Base 2.11.2
 _ZNK12QsciLexerPOV14wordCharactersEv@Base 2.11.2
 _ZNK12QsciLexerPOV15writePropertiesER9QSettingsRK7QString@Base 2.11.2
 _ZNK12QsciLexerPOV5lexerEv@Base 2.11.2
 _ZNK12QsciLexerPOV8keywordsEi@Base 2.11.2
 _ZNK12QsciLexerPOV8languageEv@Base 2.11.2
 _ZNK12QsciLexerSQL10braceStyleEv@Base 2.11.2
 _ZNK12QsciLexerSQL10metaObjectEv@Base 2.11.2
 _ZNK12QsciLexerSQL11defaultFontEi@Base 2.11.2
 _ZNK12QsciLexerSQL11descriptionEi@Base 2.11.2
 _ZNK12QsciLexerSQL12defaultColorEi@Base 2.11.2
 _ZNK12QsciLexerSQL12defaultPaperEi@Base 2.11.2
 _ZNK12QsciLexerSQL14defaultEolFillEi@Base 2.11.2
 _ZNK12QsciLexerSQL15writePropertiesER9QSettingsRK7QString@Base 2.11.2
 _ZNK12QsciLexerSQL5lexerEv@Base 2.11.2
 _ZNK12QsciLexerSQL8keywordsEi@Base 2.11.2
 _ZNK12QsciLexerSQL8languageEv@Base 2.11.2
 _ZNK12QsciLexerTCL10braceStyleEv@Base 2.11.2
 _ZNK12QsciLexerTCL10metaObjectEv@Base 2.11.2
 _ZNK12QsciLexerTCL11defaultFontEi@Base 2.11.2
 _ZNK12QsciLexerTCL11descriptionEi@Base 2.11.2
 _ZNK12QsciLexerTCL12defaultColorEi@Base 2.11.2
 _ZNK12QsciLexerTCL12defaultPaperEi@Base 2.11.2
 _ZNK12QsciLexerTCL14defaultEolFillEi@Base 2.11.2
 _ZNK12QsciLexerTCL15writePropertiesER9QSettingsRK7QString@Base 2.11.2
 _ZNK12QsciLexerTCL5lexerEv@Base 2.11.2
 _ZNK12QsciLexerTCL8keywordsEi@Base 2.11.2
 _ZNK12QsciLexerTCL8languageEv@Base 2.11.2
 _ZNK12QsciLexerTeX10metaObjectEv@Base 2.11.2
 _ZNK12QsciLexerTeX11descriptionEi@Base 2.11.2
 _ZNK12QsciLexerTeX12defaultColorEi@Base 2.11.2
 _ZNK12QsciLexerTeX14wordCharactersEv@Base 2.11.2
 _ZNK12QsciLexerTeX15writePropertiesER9QSettingsRK7QString@Base 2.11.2
 _ZNK12QsciLexerTeX5lexerEv@Base 2.11.2
 _ZNK12QsciLexerTeX8keywordsEi@Base 2.11.2
 _ZNK12QsciLexerTeX8languageEv@Base 2.11.2
 _ZNK12QsciLexerXML10metaObjectEv@Base 2.11.2
 _ZNK12QsciLexerXML11defaultFontEi@Base 2.11.2
 _ZNK12QsciLexerXML12defaultColorEi@Base 2.11.2
 _ZNK12QsciLexerXML12defaultPaperEi@Base 2.11.2
 _ZNK12QsciLexerXML13scriptsStyledEv@Base 2.11.2
 _ZNK12QsciLexerXML14defaultEolFillEi@Base 2.11.2
 _ZNK12QsciLexerXML15writePropertiesER9QSettingsRK7QString@Base 2.11.2
 _ZNK12QsciLexerXML5lexerEv@Base 2.11.2
 _ZNK12QsciLexerXML8keywordsEi@Base 2.11.2
 _ZNK12QsciLexerXML8languageEv@Base 2.11.2
 _ZNK13QsciLexerBash10braceStyleEv@Base 2.11.2
 _ZNK13QsciLexerBash10metaObjectEv@Base 2.11.2
 _ZNK13QsciLexerBash11defaultFontEi@Base 2.11.2
 _ZNK13QsciLexerBash11descriptionEi@Base 2.11.2
 _ZNK13QsciLexerBash11foldCompactEv@Base 2.11.2
 _ZNK13QsciLexerBash12defaultColorEi@Base 2.11.2
 _ZNK13QsciLexerBash12defaultPaperEi@Base 2.11.2
 _ZNK13QsciLexerBash12foldCommentsEv@Base 2.11.2
 _ZNK13QsciLexerBash14defaultEolFillEi@Base 2.11.2
 _ZNK13QsciLexerBash14wordCharactersEv@Base 2.11.2
 _ZNK13QsciLexerBash15writePropertiesER9QSettingsRK7QString@Base 2.11.2
 _ZNK13QsciLexerBash5lexerEv@Base 2.11.2
 _ZNK13QsciLexerBash8keywordsEi@Base 2.11.2
 _ZNK13QsciLexerBash8languageEv@Base 2.11.2
 _ZNK13QsciLexerDiff10metaObjectEv@Base 2.11.2
 _ZNK13QsciLexerDiff11descriptionEi@Base 2.11.2
 _ZNK13QsciLexerDiff12defaultColorEi@Base 2.11.2
 _ZNK13QsciLexerDiff14wordCharactersEv@Base 2.11.2
 _ZNK13QsciLexerDiff5lexerEv@Base 2.11.2
 _ZNK13QsciLexerDiff8languageEv@Base 2.11.2
 _ZNK13QsciLexerHTML10metaObjectEv@Base 2.11.2
 _ZNK13QsciLexerHTML11defaultFontEi@Base 2.11.2
 _ZNK13QsciLexerHTML11descriptionEi@Base 2.11.2
 _ZNK13QsciLexerHTML12defaultColorEi@Base 2.11.2
 _ZNK13QsciLexerHTML12defaultPaperEi@Base 2.11.2
 _ZNK13QsciLexerHTML14defaultEolFillEi@Base 2.11.2
 _ZNK13QsciLexerHTML14wordCharactersEv@Base 2.11.2
 _ZNK13QsciLexerHTML15writePropertiesER9QSettingsRK7QString@Base 2.11.2
 _ZNK13QsciLexerHTML21autoCompletionFillupsEv@Base 2.11.2
 _ZNK13QsciLexerHTML5lexerEv@Base 2.11.2
 _ZNK13QsciLexerHTML8keywordsEi@Base 2.11.2
 _ZNK13QsciLexerHTML8languageEv@Base 2.11.2
 _ZNK13QsciLexerJSON10metaObjectEv@Base 2.11.2
 _ZNK13QsciLexerJSON11defaultFontEi@Base 2.11.2
 _ZNK13QsciLexerJSON11descriptionEi@Base 2.11.2
 _ZNK13QsciLexerJSON12defaultColorEi@Base 2.11.2
 _ZNK13QsciLexerJSON12defaultPaperEi@Base 2.11.2
 _ZNK13QsciLexerJSON14defaultEolFillEi@Base 2.11.2
 _ZNK13QsciLexerJSON15writePropertiesER9QSettingsRK7QString@Base 2.11.2
 _ZNK13QsciLexerJSON5lexerEv@Base 2.11.2
 _ZNK13QsciLexerJSON8keywordsEi@Base 2.11.2
 _ZNK13QsciLexerJSON8languageEv@Base 2.11.2
 _ZNK13QsciLexerJava10metaObjectEv@Base 2.11.2
 _ZNK13QsciLexerJava8keywordsEi@Base 2.11.2
 _ZNK13QsciLexerJava8languageEv@Base 2.11.2
 _ZNK13QsciLexerMASM10metaObjectEv@Base 2.14.1
 _ZNK13QsciLexerMASM5lexerEv@Base 2.14.1
 _ZNK13QsciLexerMASM8languageEv@Base 2.14.1
 _ZNK13QsciLexerNASM10metaObjectEv@Base 2.14.1
 _ZNK13QsciLexerNASM5lexerEv@Base 2.14.1
 _ZNK13QsciLexerNASM8languageEv@Base 2.14.1
 _ZNK13QsciLexerPerl10blockStartEPi@Base 2.11.2
 _ZNK13QsciLexerPerl10braceStyleEv@Base 2.11.2
 _ZNK13QsciLexerPerl10metaObjectEv@Base 2.11.2
 _ZNK13QsciLexerPerl11defaultFontEi@Base 2.11.2
 _ZNK13QsciLexerPerl11descriptionEi@Base 2.11.2
 _ZNK13QsciLexerPerl11foldCompactEv@Base 2.11.2
 _ZNK13QsciLexerPerl12defaultColorEi@Base 2.11.2
 _ZNK13QsciLexerPerl12defaultPaperEi@Base 2.11.2
 _ZNK13QsciLexerPerl12foldCommentsEv@Base 2.11.2
 _ZNK13QsciLexerPerl12foldPackagesEv@Base 2.11.2
 _ZNK13QsciLexerPerl13foldPODBlocksEv@Base 2.11.2
 _ZNK13QsciLexerPerl14defaultEolFillEi@Base 2.11.2
 _ZNK13QsciLexerPerl14wordCharactersEv@Base 2.11.2
 _ZNK13QsciLexerPerl15writePropertiesER9QSettingsRK7QString@Base 2.11.2
 _ZNK13QsciLexerPerl28autoCompletionWordSeparatorsEv@Base 2.11.2
 _ZNK13QsciLexerPerl5lexerEv@Base 2.11.2
 _ZNK13QsciLexerPerl8blockEndEPi@Base 2.11.2
 _ZNK13QsciLexerPerl8keywordsEi@Base 2.11.2
 _ZNK13QsciLexerPerl8languageEv@Base 2.11.2
 _ZNK13QsciLexerRuby10blockStartEPi@Base 2.11.2
 _ZNK13QsciLexerRuby10braceStyleEv@Base 2.11.2
 _ZNK13QsciLexerRuby10metaObjectEv@Base 2.11.2
 _ZNK13QsciLexerRuby11defaultFontEi@Base 2.11.2
 _ZNK13QsciLexerRuby11descriptionEi@Base 2.11.2
 _ZNK13QsciLexerRuby12defaultColorEi@Base 2.11.2
 _ZNK13QsciLexerRuby12defaultPaperEi@Base 2.11.2
 _ZNK13QsciLexerRuby14defaultEolFillEi@Base 2.11.2
 _ZNK13QsciLexerRuby15writePropertiesER9QSettingsRK7QString@Base 2.11.2
 _ZNK13QsciLexerRuby17blockStartKeywordEPi@Base 2.11.2
 _ZNK13QsciLexerRuby5lexerEv@Base 2.11.2
 _ZNK13QsciLexerRuby8blockEndEPi@Base 2.11.2
 _ZNK13QsciLexerRuby8keywordsEi@Base 2.11.2
 _ZNK13QsciLexerRuby8languageEv@Base 2.11.2
 _ZNK13QsciLexerSRec10metaObjectEv@Base 2.14.1
 _ZNK13QsciLexerSRec11descriptionEi@Base 2.14.1
 _ZNK13QsciLexerSRec5lexerEv@Base 2.14.1
 _ZNK13QsciLexerSRec8languageEv@Base 2.14.1
 _ZNK13QsciLexerVHDL10braceStyleEv@Base 2.11.2
 _ZNK13QsciLexerVHDL10foldAtElseEv@Base 2.11.2
 _ZNK13QsciLexerVHDL10metaObjectEv@Base 2.11.2
 _ZNK13QsciLexerVHDL11defaultFontEi@Base 2.11.2
 _ZNK13QsciLexerVHDL11descriptionEi@Base 2.11.2
 _ZNK13QsciLexerVHDL11foldAtBeginEv@Base 2.11.2
 _ZNK13QsciLexerVHDL11foldCompactEv@Base 2.11.2
 _ZNK13QsciLexerVHDL12defaultColorEi@Base 2.11.2
 _ZNK13QsciLexerVHDL12defaultPaperEi@Base 2.11.2
 _ZNK13QsciLexerVHDL12foldCommentsEv@Base 2.11.2
 _ZNK13QsciLexerVHDL14defaultEolFillEi@Base 2.11.2
 _ZNK13QsciLexerVHDL15writePropertiesER9QSettingsRK7QString@Base 2.11.2
 _ZNK13QsciLexerVHDL17foldAtParenthesisEv@Base 2.11.2
 _ZNK13QsciLexerVHDL5lexerEv@Base 2.11.2
 _ZNK13QsciLexerVHDL8keywordsEi@Base 2.11.2
 _ZNK13QsciLexerVHDL8languageEv@Base 2.11.2
 _ZNK13QsciLexerYAML10metaObjectEv@Base 2.11.2
 _ZNK13QsciLexerYAML11defaultFontEi@Base 2.11.2
 _ZNK13QsciLexerYAML11descriptionEi@Base 2.11.2
 _ZNK13QsciLexerYAML12defaultColorEi@Base 2.11.2
 _ZNK13QsciLexerYAML12defaultPaperEi@Base 2.11.2
 _ZNK13QsciLexerYAML12foldCommentsEv@Base 2.11.2
 _ZNK13QsciLexerYAML14defaultEolFillEi@Base 2.11.2
 _ZNK13QsciLexerYAML15writePropertiesER9QSettingsRK7QString@Base 2.11.2
 _ZNK13QsciLexerYAML5lexerEv@Base 2.11.2
 _ZNK13QsciLexerYAML8keywordsEi@Base 2.11.2
 _ZNK13QsciLexerYAML8languageEv@Base 2.11.2
 _ZNK13QsciScintilla10annotationEi@Base 2.11.2
 _ZNK13QsciScintilla10edgeColumnEv@Base 2.11.2
 _ZNK13QsciScintilla10isModifiedEv@Base 2.11.2
 _ZNK13QsciScintilla10isReadOnlyEv@Base 2.11.2
 _ZNK13QsciScintilla10lineLengthEi@Base 2.11.2
 _ZNK13QsciScintilla10marginTypeEi@Base 2.11.2
 _ZNK13QsciScintilla10markerLineEi@Base 2.11.2
 _ZNK13QsciScintilla10metaObjectEv@Base 2.11.2
 _ZNK13QsciScintilla10tabIndentsEv@Base 2.11.2
 _ZNK13QsciScintilla10textHeightEi@Base 2.11.2
 _ZNK13QsciScintilla11extraAscentEv@Base 2.11.2
 _ZNK13QsciScintilla11indentWidthEv@Base 2.11.2
 _ZNK13QsciScintilla11indentationEi@Base 2.11.2
 _ZNK13QsciScintilla11isStartCharEc@Base 2.11.2
 _ZNK13QsciScintilla11marginWidthEi@Base 2.11.2
 _ZNK13QsciScintilla11scrollWidthEv@Base 2.11.2
 _ZNK13QsciScintilla11tabDrawModeEv@Base 2.11.2
 _ZNK13QsciScintilla11wordAtPointERK6QPoint@Base 2.11.2
 _ZNK13QsciScintilla12extraDescentEv@Base 2.11.2
 _ZNK13QsciScintilla12getCharacterERi@Base 2.11.2
 _ZNK13QsciScintilla12getSelectionEPiS0_S0_S0_@Base 2.11.2
 _ZNK13QsciScintilla12getSeparatorERi@Base 2.11.2
 _ZNK13QsciScintilla12isListActiveEv@Base 2.11.2
 _ZNK13QsciScintilla12selectedTextEv@Base 2.11.2
 _ZNK13QsciScintilla12set_shortcutEP7QActionN11QsciCommand7CommandE@Base 2.11.2
 _ZNK13QsciScintilla13caseSensitiveEv@Base 2.11.2
 _ZNK13QsciScintilla13currentIndentEv@Base 2.11.2
 _ZNK13QsciScintilla13eolVisibilityEv@Base 2.11.2
 _ZNK13QsciScintilla13marginOptionsEv@Base 2.11.2
 _ZNK13QsciScintilla13markersAtLineEi@Base 2.11.2
 _ZNK13QsciScintilla13overwriteModeEv@Base 2.11.2
 _ZNK13QsciScintilla14markerFindNextEij@Base 2.11.2
 _ZNK13QsciScintilla14selectionToEolEv@Base 2.11.2
 _ZNK13QsciScintilla14whitespaceSizeEv@Base 2.11.2
 _ZNK13QsciScintilla14wordAtPositionEi@Base 2.11.2
 _ZNK13QsciScintilla14wordCharactersEv@Base 2.11.2
 _ZNK13QsciScintilla14wrapIndentModeEv@Base 2.11.2
 _ZNK13QsciScintilla15contractedFoldsEv@Base 2.11.2
 _ZNK13QsciScintilla15isCallTipActiveEv@Base 2.11.2
 _ZNK13QsciScintilla15isRedoAvailableEv@Base 2.11.2
 _ZNK13QsciScintilla15isUndoAvailableEv@Base 2.11.2
 _ZNK13QsciScintilla15isWordCharacterEc@Base 2.11.2
 _ZNK13QsciScintilla15wordAtLineIndexEii@Base 2.11.2
 _ZNK13QsciScintilla16firstVisibleLineEv@Base 2.11.2
 _ZNK13QsciScintilla16indentationWidthEv@Base 2.11.2
 _ZNK13QsciScintilla16marginMarkerMaskEi@Base 2.11.2
 _ZNK13QsciScintilla17annotationDisplayEv@Base 2.11.2
 _ZNK13QsciScintilla17getCursorPositionEPiS0_@Base 2.11.2
 _ZNK13QsciScintilla17indentationGuidesEv@Base 2.11.2
 _ZNK13QsciScintilla17marginLineNumbersEi@Base 2.11.2
 _ZNK13QsciScintilla17marginSensitivityEi@Base 2.11.2
 _ZNK13QsciScintilla18backspaceUnindentsEv@Base 2.11.2
 _ZNK13QsciScintilla18indicatorDrawUnderEi@Base 2.11.2
 _ZNK13QsciScintilla18markerFindPreviousEij@Base 2.11.2
 _ZNK13QsciScintilla19indentationsUseTabsEv@Base 2.11.2
 _ZNK13QsciScintilla19scrollWidthTrackingEv@Base 2.11.2
 _ZNK13QsciScintilla20isAutoCompletionListEv@Base 2.11.2
 _ZNK13QsciScintilla20whitespaceVisibilityEv@Base 2.11.2
 _ZNK13QsciScintilla21lineIndexFromPositionEiPiS0_@Base 2.11.2
 _ZNK13QsciScintilla21marginBackgroundColorEi@Base 2.11.2
 _ZNK13QsciScintilla21positionFromLineIndexEii@Base 2.11.2
 _ZNK13QsciScintilla23adjustedCallTipPositionEi@Base 2.11.2
 _ZNK13QsciScintilla23autoCompletionUseSingleEv@Base 2.11.2
 _ZNK13QsciScintilla24autoCompletionShowSingleEv@Base 2.11.2
 _ZNK13QsciScintilla25autoCompletionReplaceWordEv@Base 2.11.2
 _ZNK13QsciScintilla28autoCompletionFillupsEnabledEv@Base 2.11.2
 _ZNK13QsciScintilla29autoCompletionCaseSensitivityEv@Base 2.11.2
 _ZNK13QsciScintilla4textEi@Base 2.11.2
 _ZNK13QsciScintilla4textEii@Base 2.11.2
 _ZNK13QsciScintilla4textEv@Base 2.11.2
 _ZNK13QsciScintilla5bytesEii@Base 2.11.2
 _ZNK13QsciScintilla5colorEv@Base 2.11.2
 _ZNK13QsciScintilla5lexerEv@Base 2.11.2
 _ZNK13QsciScintilla5linesEv@Base 2.11.2
 _ZNK13QsciScintilla5paperEv@Base 2.11.2
 _ZNK13QsciScintilla5writeEP9QIODevice@Base 2.11.2
 _ZNK13QsciScintilla6isUtf8Ev@Base 2.11.2
 _ZNK13QsciScintilla6lengthEv@Base 2.11.2
 _ZNK13QsciScintilla6lineAtERK6QPoint@Base 2.11.2
 _ZNK13QsciScintilla7eolModeEv@Base 2.11.2
 _ZNK13QsciScintilla7getWordERi@Base 2.11.2
 _ZNK13QsciScintilla7marginsEv@Base 2.11.2
 _ZNK13QsciScintilla8edgeModeEv@Base 2.11.2
 _ZNK13QsciScintilla8tabWidthEv@Base 2.11.2
 _ZNK13QsciScintilla8wrapModeEv@Base 2.11.2
 _ZNK13QsciScintilla9edgeColorEv@Base 2.11.2
 _ZNK14QsciCommandSet4findEN11QsciCommand7CommandE@Base 2.11.2
 _ZNK14QsciCommandSet7boundToEi@Base 2.11.2
 _ZNK14QsciLexerBatch10metaObjectEv@Base 2.11.2
 _ZNK14QsciLexerBatch11defaultFontEi@Base 2.11.2
 _ZNK14QsciLexerBatch11descriptionEi@Base 2.11.2
 _ZNK14QsciLexerBatch12defaultColorEi@Base 2.11.2
 _ZNK14QsciLexerBatch12defaultPaperEi@Base 2.11.2
 _ZNK14QsciLexerBatch13caseSensitiveEv@Base 2.11.2
 _ZNK14QsciLexerBatch14defaultEolFillEi@Base 2.11.2
 _ZNK14QsciLexerBatch14wordCharactersEv@Base 2.11.2
 _ZNK14QsciLexerBatch5lexerEv@Base 2.11.2
 _ZNK14QsciLexerBatch8keywordsEi@Base 2.11.2
 _ZNK14QsciLexerBatch8languageEv@Base 2.11.2
 _ZNK14QsciLexerCMake10foldAtElseEv@Base 2.11.2
 _ZNK14QsciLexerCMake10metaObjectEv@Base 2.11.2
 _ZNK14QsciLexerCMake11defaultFontEi@Base 2.11.2
 _ZNK14QsciLexerCMake11descriptionEi@Base 2.11.2
 _ZNK14QsciLexerCMake12defaultColorEi@Base 2.11.2
 _ZNK14QsciLexerCMake12defaultPaperEi@Base 2.11.2
 _ZNK14QsciLexerCMake15writePropertiesER9QSettingsRK7QString@Base 2.11.2
 _ZNK14QsciLexerCMake5lexerEv@Base 2.11.2
 _ZNK14QsciLexerCMake8keywordsEi@Base 2.11.2
 _ZNK14QsciLexerCMake8languageEv@Base 2.11.2
 _ZNK14QsciLexerSpice10braceStyleEv@Base 2.11.2
 _ZNK14QsciLexerSpice10metaObjectEv@Base 2.11.2
 _ZNK14QsciLexerSpice11defaultFontEi@Base 2.11.2
 _ZNK14QsciLexerSpice11descriptionEi@Base 2.11.2
 _ZNK14QsciLexerSpice12defaultColorEi@Base 2.11.2
 _ZNK14QsciLexerSpice5lexerEv@Base 2.11.2
 _ZNK14QsciLexerSpice8keywordsEi@Base 2.11.2
 _ZNK14QsciLexerSpice8languageEv@Base 2.11.2
 _ZNK14QsciStyledText5applyEP17QsciScintillaBase@Base 2.11.2
 _ZNK14QsciStyledText5styleEv@Base 2.11.2
 _ZNK15QsciLexerCSharp10metaObjectEv@Base 2.11.2
 _ZNK15QsciLexerCSharp11defaultFontEi@Base 2.11.2
 _ZNK15QsciLexerCSharp11descriptionEi@Base 2.11.2
 _ZNK15QsciLexerCSharp12defaultColorEi@Base 2.11.2
 _ZNK15QsciLexerCSharp12defaultPaperEi@Base 2.11.2
 _ZNK15QsciLexerCSharp14defaultEolFillEi@Base 2.11.2
 _ZNK15QsciLexerCSharp8keywordsEi@Base 2.11.2
 _ZNK15QsciLexerCSharp8languageEv@Base 2.11.2
 _ZNK15QsciLexerCustom10metaObjectEv@Base 2.11.2
 _ZNK15QsciLexerCustom15styleBitsNeededEv@Base 2.11.2
 _ZNK15QsciLexerMatlab10metaObjectEv@Base 2.11.2
 _ZNK15QsciLexerMatlab11defaultFontEi@Base 2.11.2
 _ZNK15QsciLexerMatlab11descriptionEi@Base 2.11.2
 _ZNK15QsciLexerMatlab12defaultColorEi@Base 2.11.2
 _ZNK15QsciLexerMatlab5lexerEv@Base 2.11.2
 _ZNK15QsciLexerMatlab8keywordsEi@Base 2.11.2
 _ZNK15QsciLexerMatlab8languageEv@Base 2.11.2
 _ZNK15QsciLexerOctave10metaObjectEv@Base 2.11.2
 _ZNK15QsciLexerOctave5lexerEv@Base 2.11.2
 _ZNK15QsciLexerOctave8keywordsEi@Base 2.11.2
 _ZNK15QsciLexerOctave8languageEv@Base 2.11.2
 _ZNK15QsciLexerPascal10blockStartEPi@Base 2.11.2
 _ZNK15QsciLexerPascal10braceStyleEv@Base 2.11.2
 _ZNK15QsciLexerPascal10metaObjectEv@Base 2.11.2
 _ZNK15QsciLexerPascal11defaultFontEi@Base 2.11.2
 _ZNK15QsciLexerPascal11descriptionEi@Base 2.11.2
 _ZNK15QsciLexerPascal11foldCompactEv@Base 2.11.2
 _ZNK15QsciLexerPascal12defaultColorEi@Base 2.11.2
 _ZNK15QsciLexerPascal12defaultPaperEi@Base 2.11.2
 _ZNK15QsciLexerPascal12foldCommentsEv@Base 2.11.2
 _ZNK15QsciLexerPascal14defaultEolFillEi@Base 2.11.2
 _ZNK15QsciLexerPascal15writePropertiesER9QSettingsRK7QString@Base 2.11.2
 _ZNK15QsciLexerPascal16foldPreprocessorEv@Base 2.11.2
 _ZNK15QsciLexerPascal17blockStartKeywordEPi@Base 2.11.2
 _ZNK15QsciLexerPascal17smartHighlightingEv@Base 2.11.2
 _ZNK15QsciLexerPascal28autoCompletionWordSeparatorsEv@Base 2.11.2
 _ZNK15QsciLexerPascal5lexerEv@Base 2.11.2
 _ZNK15QsciLexerPascal8blockEndEPi@Base 2.11.2
 _ZNK15QsciLexerPascal8keywordsEi@Base 2.11.2
 _ZNK15QsciLexerPascal8languageEv@Base 2.11.2
 _ZNK15QsciLexerPython10blockStartEPi@Base 2.11.2
 _ZNK15QsciLexerPython10braceStyleEv@Base 2.11.2
 _ZNK15QsciLexerPython10metaObjectEv@Base 2.11.2
 _ZNK15QsciLexerPython11defaultFontEi@Base 2.11.2
 _ZNK15QsciLexerPython11descriptionEi@Base 2.11.2
 _ZNK15QsciLexerPython12defaultColorEi@Base 2.11.2
 _ZNK15QsciLexerPython12defaultPaperEi@Base 2.11.2
 _ZNK15QsciLexerPython13blockLookbackEv@Base 2.11.2
 _ZNK15QsciLexerPython14defaultEolFillEi@Base 2.11.2
 _ZNK15QsciLexerPython15writePropertiesER9QSettingsRK7QString@Base 2.11.2
 _ZNK15QsciLexerPython20indentationGuideViewEv@Base 2.11.2
 _ZNK15QsciLexerPython28autoCompletionWordSeparatorsEv@Base 2.11.2
 _ZNK15QsciLexerPython5lexerEv@Base 2.11.2
 _ZNK15QsciLexerPython8keywordsEi@Base 2.11.2
 _ZNK15QsciLexerPython8languageEv@Base 2.11.2
 _ZNK15QsciLexerTekHex10metaObjectEv@Base 2.14.1
 _ZNK15QsciLexerTekHex11descriptionEi@Base 2.14.1
 _ZNK15QsciLexerTekHex5lexerEv@Base 2.14.1
 _ZNK15QsciLexerTekHex8languageEv@Base 2.14.1
 _ZNK16QsciAbstractAPIs10metaObjectEv@Base 2.11.2
 _ZNK16QsciAbstractAPIs5lexerEv@Base 2.11.2
 _ZNK16QsciLexerEDIFACT10metaObjectEv@Base 2.11.2
 _ZNK16QsciLexerEDIFACT11descriptionEi@Base 2.11.2
 _ZNK16QsciLexerEDIFACT12defaultColorEi@Base 2.11.2
 _ZNK16QsciLexerEDIFACT5lexerEv@Base 2.11.2
 _ZNK16QsciLexerEDIFACT8languageEv@Base 2.11.2
 _ZNK16QsciLexerFortran10metaObjectEv@Base 2.11.2
 _ZNK16QsciLexerFortran5lexerEv@Base 2.11.2
 _ZNK16QsciLexerFortran8keywordsEi@Base 2.11.2
 _ZNK16QsciLexerFortran8languageEv@Base 2.11.2
 _ZNK16QsciLexerVerilog10braceStyleEv@Base 2.11.2
 _ZNK16QsciLexerVerilog10metaObjectEv@Base 2.11.2
 _ZNK16QsciLexerVerilog11defaultFontEi@Base 2.11.2
 _ZNK16QsciLexerVerilog11descriptionEi@Base 2.11.2
 _ZNK16QsciLexerVerilog12defaultColorEi@Base 2.11.2
 _ZNK16QsciLexerVerilog12defaultPaperEi@Base 2.11.2
 _ZNK16QsciLexerVerilog14defaultEolFillEi@Base 2.11.2
 _ZNK16QsciLexerVerilog14wordCharactersEv@Base 2.11.2
 _ZNK16QsciLexerVerilog15writePropertiesER9QSettingsRK7QString@Base 2.11.2
 _ZNK16QsciLexerVerilog5lexerEv@Base 2.11.2
 _ZNK16QsciLexerVerilog8keywordsEi@Base 2.11.2
 _ZNK16QsciLexerVerilog8languageEv@Base 2.11.2
 _ZNK17QsciLexerIntelHex10metaObjectEv@Base 2.14.1
 _ZNK17QsciLexerIntelHex11descriptionEi@Base 2.14.1
 _ZNK17QsciLexerIntelHex5lexerEv@Base 2.14.1
 _ZNK17QsciLexerIntelHex8languageEv@Base 2.14.1
 _ZNK17QsciLexerMakefile10metaObjectEv@Base 2.11.2
 _ZNK17QsciLexerMakefile11defaultFontEi@Base 2.11.2
 _ZNK17QsciLexerMakefile11descriptionEi@Base 2.11.2
 _ZNK17QsciLexerMakefile12defaultColorEi@Base 2.11.2
 _ZNK17QsciLexerMakefile12defaultPaperEi@Base 2.11.2
 _ZNK17QsciLexerMakefile14defaultEolFillEi@Base 2.11.2
 _ZNK17QsciLexerMakefile14wordCharactersEv@Base 2.11.2
 _ZNK17QsciLexerMakefile5lexerEv@Base 2.11.2
 _ZNK17QsciLexerMakefile8languageEv@Base 2.11.2
 _ZNK17QsciLexerMarkdown10metaObjectEv@Base 2.11.2
 _ZNK17QsciLexerMarkdown11defaultFontEi@Base 2.11.2
 _ZNK17QsciLexerMarkdown11descriptionEi@Base 2.11.2
 _ZNK17QsciLexerMarkdown12defaultColorEi@Base 2.11.2
 _ZNK17QsciLexerMarkdown12defaultPaperEi@Base 2.11.2
 _ZNK17QsciLexerMarkdown5lexerEv@Base 2.11.2
 _ZNK17QsciLexerMarkdown8languageEv@Base 2.11.2
 _ZNK17QsciScintillaBase10metaObjectEv@Base 2.11.2
 _ZNK17QsciScintillaBase10toMimeDataERK10QByteArrayb@Base 2.11.2
 _ZNK17QsciScintillaBase11bytesAsTextEPKci@Base 2.14.1
 _ZNK17QsciScintillaBase11textAsBytesERK7QString@Base 2.11.2
 _ZNK17QsciScintillaBase12fromMimeDataEPK9QMimeDataRb@Base 2.11.2
 _ZNK17QsciScintillaBase13SendScintillaEjPKc@Base 2.11.2
 _ZNK17QsciScintillaBase13SendScintillaEjPKcS1_@Base 2.11.2
 _ZNK17QsciScintillaBase13SendScintillaEjRK6QColor@Base 2.11.2
 _ZNK17QsciScintillaBase13SendScintillaEji@Base 2.11.2
 _ZNK17QsciScintillaBase13SendScintillaEjl@Base 2.11.2
 _ZNK17QsciScintillaBase13SendScintillaEjllPc@Base 2.11.2
 _ZNK17QsciScintillaBase13SendScintillaEjmP8QPainterRK5QRectll@Base 2.11.2
 _ZNK17QsciScintillaBase13SendScintillaEjmPv@Base 2.11.2
 _ZNK17QsciScintillaBase13SendScintillaEjmRK6QColor@Base 2.11.2
 _ZNK17QsciScintillaBase13SendScintillaEjmRK6QImage@Base 2.11.2
 _ZNK17QsciScintillaBase13SendScintillaEjmRK7QPixmap@Base 2.11.2
 _ZNK17QsciScintillaBase13SendScintillaEjml@Base 2.11.2
 (subst)_ZNK17QsciScintillaBase13SendScintillaEj{size_t}PKc@Base 2.11.2
 _ZNK17QsciScintillaBase16inputMethodQueryEN2Qt16InputMethodQueryE@Base 2.11.2
 _ZNK17QsciScintillaBase17contextMenuNeededEii@Base 2.11.2
 _ZNK17QsciScintillaBase21canInsertFromMimeDataEPK9QMimeData@Base 2.11.2
 _ZNK17QsciScintillaBase22SendScintillaPtrResultEj@Base 2.11.2
 _ZNK18QsciLexerFortran7710braceStyleEv@Base 2.11.2
 _ZNK18QsciLexerFortran7710metaObjectEv@Base 2.11.2
 _ZNK18QsciLexerFortran7711defaultFontEi@Base 2.11.2
 _ZNK18QsciLexerFortran7711descriptionEi@Base 2.11.2
 _ZNK18QsciLexerFortran7711foldCompactEv@Base 2.11.2
 _ZNK18QsciLexerFortran7712defaultColorEi@Base 2.11.2
 _ZNK18QsciLexerFortran7712defaultPaperEi@Base 2.11.2
 _ZNK18QsciLexerFortran7714defaultEolFillEi@Base 2.11.2
 _ZNK18QsciLexerFortran7715writePropertiesER9QSettingsRK7QString@Base 2.11.2
 _ZNK18QsciLexerFortran775lexerEv@Base 2.11.2
 _ZNK18QsciLexerFortran778keywordsEi@Base 2.11.2
 _ZNK18QsciLexerFortran778languageEv@Base 2.11.2
 _ZNK19QsciLexerJavaScript10metaObjectEv@Base 2.11.2
 _ZNK19QsciLexerJavaScript11defaultFontEi@Base 2.11.2
 _ZNK19QsciLexerJavaScript11descriptionEi@Base 2.11.2
 _ZNK19QsciLexerJavaScript12defaultColorEi@Base 2.11.2
 _ZNK19QsciLexerJavaScript12defaultPaperEi@Base 2.11.2
 _ZNK19QsciLexerJavaScript14defaultEolFillEi@Base 2.11.2
 _ZNK19QsciLexerJavaScript8keywordsEi@Base 2.11.2
 _ZNK19QsciLexerJavaScript8languageEv@Base 2.11.2
 _ZNK19QsciLexerPostScript10braceStyleEv@Base 2.11.2
 _ZNK19QsciLexerPostScript10foldAtElseEv@Base 2.11.2
 _ZNK19QsciLexerPostScript10metaObjectEv@Base 2.11.2
 _ZNK19QsciLexerPostScript11defaultFontEi@Base 2.11.2
 _ZNK19QsciLexerPostScript11descriptionEi@Base 2.11.2
 _ZNK19QsciLexerPostScript11foldCompactEv@Base 2.11.2
 _ZNK19QsciLexerPostScript12defaultColorEi@Base 2.11.2
 _ZNK19QsciLexerPostScript12defaultPaperEi@Base 2.11.2
 _ZNK19QsciLexerPostScript15writePropertiesER9QSettingsRK7QString@Base 2.11.2
 _ZNK19QsciLexerPostScript5levelEv@Base 2.11.2
 _ZNK19QsciLexerPostScript5lexerEv@Base 2.11.2
 _ZNK19QsciLexerPostScript8keywordsEi@Base 2.11.2
 _ZNK19QsciLexerPostScript8languageEv@Base 2.11.2
 _ZNK19QsciLexerPostScript8tokenizeEv@Base 2.11.2
 _ZNK19QsciLexerProperties10metaObjectEv@Base 2.11.2
 _ZNK19QsciLexerProperties11defaultFontEi@Base 2.11.2
 _ZNK19QsciLexerProperties11descriptionEi@Base 2.11.2
 _ZNK19QsciLexerProperties12defaultColorEi@Base 2.11.2
 _ZNK19QsciLexerProperties12defaultPaperEi@Base 2.11.2
 _ZNK19QsciLexerProperties14defaultEolFillEi@Base 2.11.2
 _ZNK19QsciLexerProperties14wordCharactersEv@Base 2.11.2
 _ZNK19QsciLexerProperties15writePropertiesER9QSettingsRK7QString@Base 2.11.2
 _ZNK19QsciLexerProperties5lexerEv@Base 2.11.2
 _ZNK19QsciLexerProperties8languageEv@Base 2.11.2
 _ZNK21QsciLexerCoffeeScript10blockStartEPi@Base 2.11.2
 _ZNK21QsciLexerCoffeeScript10braceStyleEv@Base 2.11.2
 _ZNK21QsciLexerCoffeeScript10metaObjectEv@Base 2.11.2
 _ZNK21QsciLexerCoffeeScript11defaultFontEi@Base 2.11.2
 _ZNK21QsciLexerCoffeeScript11descriptionEi@Base 2.11.2
 _ZNK21QsciLexerCoffeeScript12defaultColorEi@Base 2.11.2
 _ZNK21QsciLexerCoffeeScript12defaultPaperEi@Base 2.11.2
 _ZNK21QsciLexerCoffeeScript14defaultEolFillEi@Base 2.11.2
 _ZNK21QsciLexerCoffeeScript14wordCharactersEv@Base 2.11.2
 _ZNK21QsciLexerCoffeeScript15writePropertiesER9QSettingsRK7QString@Base 2.11.2
 _ZNK21QsciLexerCoffeeScript17blockStartKeywordEPi@Base 2.11.2
 _ZNK21QsciLexerCoffeeScript28autoCompletionWordSeparatorsEv@Base 2.11.2
 _ZNK21QsciLexerCoffeeScript5lexerEv@Base 2.11.2
 _ZNK21QsciLexerCoffeeScript8blockEndEPi@Base 2.11.2
 _ZNK21QsciLexerCoffeeScript8keywordsEi@Base 2.11.2
 _ZNK21QsciLexerCoffeeScript8languageEv@Base 2.11.2
 _ZNK8QsciAPIs10isPreparedERK7QString@Base 2.11.2
 _ZNK8QsciAPIs10metaObjectEv@Base 2.11.2
 _ZNK8QsciAPIs11wordIndexOfERK7QString@Base 2.11.2
 _ZNK8QsciAPIs12savePreparedERK7QString@Base 2.11.2
 _ZNK8QsciAPIs17installedAPIFilesEv@Base 2.11.2
 _ZNK8QsciAPIs19defaultPreparedNameEv@Base 2.11.2
 _ZNK8QsciAPIs8prepNameERK7QStringb@Base 2.11.2
 _ZNK9QsciLexer10blockStartEPi@Base 2.11.2
 _ZNK9QsciLexer10braceStyleEv@Base 2.11.2
 _ZNK9QsciLexer10metaObjectEv@Base 2.11.2
 _ZNK9QsciLexer11bytesAsTextEPKci@Base 2.14.1
 _ZNK9QsciLexer11defaultFontEi@Base 2.11.2
 _ZNK9QsciLexer11defaultFontEv@Base 2.11.2
 _ZNK9QsciLexer11textAsBytesERK7QString@Base 2.14.1
 _ZNK9QsciLexer12defaultColorEi@Base 2.11.2
 _ZNK9QsciLexer12defaultColorEv@Base 2.11.2
 _ZNK9QsciLexer12defaultPaperEi@Base 2.11.2
 _ZNK9QsciLexer12defaultPaperEv@Base 2.11.2
 _ZNK9QsciLexer12defaultStyleEv@Base 2.11.2
 _ZNK9QsciLexer13blockLookbackEv@Base 2.11.2
 _ZNK9QsciLexer13caseSensitiveEv@Base 2.11.2
 _ZNK9QsciLexer13writeSettingsER9QSettingsPKc@Base 2.11.2
 _ZNK9QsciLexer14defaultEolFillEi@Base 2.11.2
 _ZNK9QsciLexer14wordCharactersEv@Base 2.11.2
 _ZNK9QsciLexer15styleBitsNeededEv@Base 2.11.2
 _ZNK9QsciLexer15writePropertiesER9QSettingsRK7QString@Base 2.11.2
 _ZNK9QsciLexer16setStyleDefaultsEv@Base 2.11.2
 _ZNK9QsciLexer17blockStartKeywordEPi@Base 2.11.2
 _ZNK9QsciLexer20indentationGuideViewEv@Base 2.11.2
 _ZNK9QsciLexer21autoCompletionFillupsEv@Base 2.11.2
 _ZNK9QsciLexer28autoCompletionWordSeparatorsEv@Base 2.11.2
 _ZNK9QsciLexer4apisEv@Base 2.11.2
 _ZNK9QsciLexer4fontEi@Base 2.11.2
 _ZNK9QsciLexer5colorEi@Base 2.11.2
 _ZNK9QsciLexer5lexerEv@Base 2.11.2
 _ZNK9QsciLexer5paperEi@Base 2.11.2
 _ZNK9QsciLexer7eolFillEi@Base 2.11.2
 _ZNK9QsciLexer7lexerIdEv@Base 2.11.2
 _ZNK9QsciLexer8blockEndEPi@Base 2.11.2
 _ZNK9QsciLexer8keywordsEi@Base 2.11.2
 _ZNK9QsciLexer9styleDataEi@Base 2.11.2
 _ZNK9QsciMacro10metaObjectEv@Base 2.11.2
 _ZNK9QsciMacro4saveEv@Base 2.11.2
 _ZNK9QsciStyle5applyEP17QsciScintillaBase@Base 2.11.2
 (optional=templinst)_ZNKSt7__cxx1112regex_traitsIcE16lookup_classnameIPKcEENS1_10_RegexMaskET_S6_b@Base 2.11.2
 (optional=templinst)_ZNKSt7__cxx1112regex_traitsIcE18lookup_collatenameIPKcEENS_12basic_stringIcSt11char_traitsIcESaIcEEET_SA_@Base 2.11.2
 (optional=templinst)_ZNKSt7__cxx1112regex_traitsIwE16lookup_classnameIPKwEENS1_10_RegexMaskET_S6_b@Base 2.11.2
 (optional=templinst)_ZNKSt7__cxx1112regex_traitsIwE18lookup_collatenameIPKwEENS_12basic_stringIwSt11char_traitsIwESaIwEEET_SA_@Base 2.11.2
 (optional=templinst)_ZNSt11_Deque_baseIlSaIlEED1Ev@Base 2.11.2
 (optional=templinst)_ZNSt11_Deque_baseIlSaIlEED2Ev@Base 2.11.2
 (optional=templinst)_ZNSt5dequeINSt8__detail9_StateSeqINSt7__cxx1112regex_traitsIcEEEESaIS5_EE12emplace_backIJS5_EEEvDpOT_@Base 2.11.2
 (optional=templinst)_ZNSt5dequeINSt8__detail9_StateSeqINSt7__cxx1112regex_traitsIcEEEESaIS5_EE16_M_push_back_auxIJRKS5_EEEvDpOT_@Base 2.11.2
 (optional=templinst|arch=alpha armel armhf i386 mips64el mipsel powerpc ppc64 ppc64el riscv64 s390x)_ZNSt5dequeINSt8__detail9_StateSeqINSt7__cxx1112regex_traitsIcEEEESaIS5_EE16_M_push_back_auxIJS5_EEEvDpOT_@Base 2.11.5
 (optional=templinst|subst)_ZNSt5dequeINSt8__detail9_StateSeqINSt7__cxx1112regex_traitsIcEEEESaIS5_EE17_M_reallocate_mapE{size_t}b@Base 2.11.2
 (optional=templinst)_ZNSt5dequeINSt8__detail9_StateSeqINSt7__cxx1112regex_traitsIwEEEESaIS5_EE12emplace_backIJS5_EEEvDpOT_@Base 2.11.2
 (optional=templinst)_ZNSt5dequeINSt8__detail9_StateSeqINSt7__cxx1112regex_traitsIwEEEESaIS5_EE16_M_push_back_auxIJRKS5_EEEvDpOT_@Base 2.11.2
 (optional=templinst|arch=alpha armel armhf i386 mips64el mipsel powerpc ppc64 ppc64el riscv64 s390x)_ZNSt5dequeINSt8__detail9_StateSeqINSt7__cxx1112regex_traitsIwEEEESaIS5_EE16_M_push_back_auxIJS5_EEEvDpOT_@Base 2.11.5
 (optional=templinst|subst)_ZNSt5dequeINSt8__detail9_StateSeqINSt7__cxx1112regex_traitsIwEEEESaIS5_EE17_M_reallocate_mapE{size_t}b@Base 2.11.2
 (optional=templinst)_ZNSt5dequeIlSaIlEE16_M_push_back_auxIJRKlEEEvDpOT_@Base 2.11.2
 (optional=templinst)_ZNSt6vectorIN9Scintilla9DrawPhaseESaIS1_EE17_M_realloc_insertIJRKS1_EEEvN9__gnu_cxx17__normal_iteratorIPS1_S3_EEDpOT_@Base 2.11.2
 (optional=templinst)_ZNSt6vectorINSt7__cxx1112basic_stringIcSt11char_traitsIcESaIcEEESaIS5_EE14_M_insert_rvalEN9__gnu_cxx17__normal_iteratorIPKS5_S7_EEOS5_@Base 2.11.2
 (optional=templinst)_ZNSt6vectorINSt7__cxx1112basic_stringIcSt11char_traitsIcESaIcEEESaIS5_EE17_M_realloc_insertIJEEEvN9__gnu_cxx17__normal_iteratorIPS5_S7_EEDpOT_@Base 2.11.2
 (optional=templinst)_ZNSt6vectorINSt7__cxx1112basic_stringIcSt11char_traitsIcESaIcEEESaIS5_EE17_M_realloc_insertIJRKS5_EEEvN9__gnu_cxx17__normal_iteratorIPS5_S7_EEDpOT_@Base 2.11.2
 (optional=templinst)_ZNSt6vectorINSt7__cxx1112basic_stringIcSt11char_traitsIcESaIcEEESaIS5_EE17_M_realloc_insertIJS5_EEEvN9__gnu_cxx17__normal_iteratorIPS5_S7_EEDpOT_@Base 2.11.5
 (optional=templinst)_ZNSt6vectorINSt7__cxx1112basic_stringIcSt11char_traitsIcESaIcEEESaIS5_EE8_M_eraseEN9__gnu_cxx17__normal_iteratorIPS5_S7_EESB_@Base 2.11.2
 (optional=templinst)_ZNSt6vectorINSt7__cxx1112basic_stringIwSt11char_traitsIwESaIwEEESaIS5_EE17_M_realloc_insertIJRKS5_EEEvN9__gnu_cxx17__normal_iteratorIPS5_S7_EEDpOT_@Base 2.11.2
 (optional=templinst)_ZNSt6vectorINSt7__cxx1112regex_traitsIcE10_RegexMaskESaIS3_EE17_M_realloc_insertIJRKS3_EEEvN9__gnu_cxx17__normal_iteratorIPS3_S5_EEDpOT_@Base 2.11.2
 (optional=templinst)_ZNSt6vectorINSt7__cxx1112regex_traitsIwE10_RegexMaskESaIS3_EE17_M_realloc_insertIJRKS3_EEEvN9__gnu_cxx17__normal_iteratorIPS3_S5_EEDpOT_@Base 2.11.2
 (optional=templinst)_ZNSt6vectorINSt8__detail6_StateIcEESaIS2_EE17_M_realloc_insertIJS2_EEEvN9__gnu_cxx17__normal_iteratorIPS2_S4_EEDpOT_@Base 2.11.2
 (optional=templinst)_ZNSt6vectorINSt8__detail6_StateIwEESaIS2_EE17_M_realloc_insertIJS2_EEEvN9__gnu_cxx17__normal_iteratorIPS2_S4_EEDpOT_@Base 2.11.2
 (optional=templinst|subst)_ZNSt6vectorISt10unique_ptrIA_KcSt14default_deleteIS2_EESaIS5_EE17_M_default_appendE{size_t}@Base 2.11.2
 (optional=templinst)_ZNSt6vectorISt10unique_ptrIA_KcSt14default_deleteIS2_EESaIS5_EE17_M_realloc_insertIJS5_EEEvN9__gnu_cxx17__normal_iteratorIPS5_S7_EEDpOT_@Base 2.11.2
 (optional=templinst|subst)_ZNSt6vectorISt10unique_ptrIA_cSt14default_deleteIS1_EESaIS4_EE17_M_default_appendE{size_t}@Base 2.11.2
 (optional=templinst|subst)_ZNSt6vectorISt10unique_ptrIS_IiSaIiEESt14default_deleteIS2_EESaIS5_EE17_M_default_appendE{size_t}@Base 2.11.2
 (optional=templinst)_ZNSt6vectorISt4pairINSt7__cxx1112basic_stringIcSt11char_traitsIcESaIcEEES6_ESaIS7_EE17_M_realloc_insertIJS7_EEEvN9__gnu_cxx17__normal_iteratorIPS7_S9_EEDpOT_@Base 2.11.2
 (optional=templinst)_ZNSt6vectorISt4pairINSt7__cxx1112basic_stringIwSt11char_traitsIwESaIwEEES6_ESaIS7_EE17_M_realloc_insertIJS7_EEEvN9__gnu_cxx17__normal_iteratorIPS7_S9_EEDpOT_@Base 2.11.2
 (optional=templinst)_ZNSt6vectorISt4pairIccESaIS1_EE17_M_realloc_insertIJS1_EEEvN9__gnu_cxx17__normal_iteratorIPS1_S3_EEDpOT_@Base 2.11.2
 (optional=templinst)_ZNSt6vectorISt4pairIwwESaIS1_EE17_M_realloc_insertIJS1_EEEvN9__gnu_cxx17__normal_iteratorIPS1_S3_EEDpOT_@Base 2.11.2
 (optional=templinst)_ZNSt6vectorIcSaIcEE12emplace_backIJcEEEvDpOT_@Base 2.13.3
 (optional=templinst|subst)_ZNSt6vectorIcSaIcEE17_M_default_appendE{size_t}@Base 2.11.2
 (optional=templinst)_ZNSt6vectorIcSaIcEE17_M_realloc_insertIJcEEEvN9__gnu_cxx17__normal_iteratorIPcS1_EEDpOT_@Base 2.13.3
 (optional=templinst|subst)_ZNSt6vectorIiSaIiEE14_M_fill_insertEN9__gnu_cxx17__normal_iteratorIPiS1_EE{size_t}RKi@Base 2.11.2
 (optional=templinst|arch-bits=32)_ZNSt6vectorIiSaIiEE17_M_default_appendEj@Base 2.11.2
 (optional=templinst|arch-bits=64)_ZNSt6vectorIiSaIiEE17_M_default_appendEm@Base 2.11.2
 (optional=templinst)_ZNSt6vectorIiSaIiEE17_M_realloc_insertIJRKiEEEvN9__gnu_cxx17__normal_iteratorIPiS1_EEDpOT_@Base 2.11.2
 (optional=templinst|arch-bits=64)_ZNSt6vectorIlSaIlEE17_M_default_appendEm@Base 2.11.2
 (optional=templinst)_ZNSt6vectorIwSaIwEE12emplace_backIJwEEEvDpOT_@Base 2.13.3
 (optional=templinst)_ZNSt6vectorIwSaIwEE17_M_realloc_insertIJwEEEvN9__gnu_cxx17__normal_iteratorIPwS1_EEDpOT_@Base 2.11.5
 (optional=templinst|subst)_ZNSt6vectorI{size_t}SaI{size_t}EE17_M_realloc_insertIJRK{size_t}EEEvN9__gnu_cxx17__normal_iteratorIP{size_t}S1_EEDpOT_@Base 2.11.2
 (optional=templinst)_ZNSt8_Rb_treeINSt7__cxx1112basic_stringIcSt11char_traitsIcESaIcEEESt4pairIKS5_S5_ESt10_Select1stIS8_ESt4lessIS5_ESaIS8_EE24_M_get_insert_unique_posERS7_@Base 2.11.2
 (optional=templinst|arch=amd64 arm64 mips64el ppc64el riscv64)_ZNSt8_Rb_treeINSt7__cxx1112basic_stringIcSt11char_traitsIcESaIcEEESt4pairIKS5_S5_ESt10_Select1stIS8_ESt4lessIS5_ESaIS8_EE29_M_get_insert_hint_unique_posESt23_Rb_tree_const_iteratorIS8_ERS7_@Base 2.11.2
 (optional=templinst)_ZNSt8_Rb_treeINSt7__cxx1112basic_stringIcSt11char_traitsIcESaIcEEESt4pairIKS5_iESt10_Select1stIS8_ESt4lessIS5_ESaIS8_EE24_M_get_insert_unique_posERS7_@Base 2.11.2
 (optional=templinst|arch=amd64 arm64 mips64el ppc64el riscv64)_ZNSt8_Rb_treeINSt7__cxx1112basic_stringIcSt11char_traitsIcESaIcEEESt4pairIKS5_iESt10_Select1stIS8_ESt4lessIS5_ESaIS8_EE29_M_get_insert_hint_unique_posESt23_Rb_tree_const_iteratorIS8_ERS7_@Base 2.11.2
 (optional=templinst|arch=x32)_ZNSt8_Rb_treeIiSt4pairIKiiESt10_Select1stIS2_ESt4lessIiESaIS2_EE29_M_get_insert_hint_unique_posESt23_Rb_tree_const_iteratorIS2_ERS1_@Base 2.11.5
 (optional=templinst|subst)_ZNSt8__detail4_NFAINSt7__cxx1112regex_traitsIcEEE17_M_insert_backrefE{size_t}@Base 2.11.2
 (optional=templinst|subst)_ZNSt8__detail4_NFAINSt7__cxx1112regex_traitsIwEEE17_M_insert_backrefE{size_t}@Base 2.11.2
 (optional=templinst)_ZNSt8__detail8_ScannerIcE12_M_eat_classEc@Base 2.11.2
 (optional=templinst)_ZNSt8__detail8_ScannerIcE14_M_scan_normalEv@Base 2.11.2
 (optional=templinst)_ZNSt8__detail8_ScannerIcE16_M_scan_in_braceEv@Base 2.11.2
 (optional=templinst)_ZNSt8__detail8_ScannerIcE17_M_eat_escape_awkEv@Base 2.11.2
 (optional=templinst)_ZNSt8__detail8_ScannerIcE18_M_eat_escape_ecmaEv@Base 2.11.2
 (optional=templinst)_ZNSt8__detail8_ScannerIcE18_M_scan_in_bracketEv@Base 2.11.2
 (optional=templinst)_ZNSt8__detail8_ScannerIcE19_M_eat_escape_posixEv@Base 2.11.2
 (optional=templinst)_ZNSt8__detail8_ScannerIwE12_M_eat_classEc@Base 2.11.2
 (optional=templinst)_ZNSt8__detail8_ScannerIwE14_M_scan_normalEv@Base 2.11.2
 (optional=templinst)_ZNSt8__detail8_ScannerIwE16_M_scan_in_braceEv@Base 2.11.2
 (optional=templinst)_ZNSt8__detail8_ScannerIwE17_M_eat_escape_awkEv@Base 2.11.2
 (optional=templinst)_ZNSt8__detail8_ScannerIwE18_M_eat_escape_ecmaEv@Base 2.11.2
 (optional=templinst)_ZNSt8__detail8_ScannerIwE18_M_scan_in_bracketEv@Base 2.11.2
 (optional=templinst)_ZNSt8__detail8_ScannerIwE19_M_eat_escape_posixEv@Base 2.11.2
 (optional=templinst)_ZNSt8__detail9_CompilerINSt7__cxx1112regex_traitsIcEEE11_M_try_charEv@Base 2.11.2
 (optional=templinst)_ZNSt8__detail9_CompilerINSt7__cxx1112regex_traitsIcEEE12_M_assertionEv@Base 2.11.2
 (optional=templinst)_ZNSt8__detail9_CompilerINSt7__cxx1112regex_traitsIcEEE13_M_quantifierEv@Base 2.11.2
 (optional=templinst)_ZNSt8__detail9_CompilerINSt7__cxx1112regex_traitsIcEEE14_M_alternativeEv@Base 2.11.2
 (optional=templinst)_ZNSt8__detail9_CompilerINSt7__cxx1112regex_traitsIcEEE14_M_disjunctionEv@Base 2.11.2
 (optional=templinst)_ZNSt8__detail9_CompilerINSt7__cxx1112regex_traitsIcEEE16_M_cur_int_valueEi@Base 2.11.2
 (optional=templinst)_ZNSt8__detail9_CompilerINSt7__cxx1112regex_traitsIcEEE18_M_expression_termILb0ELb0EEEbRNS4_13_BracketStateERNS_15_BracketMatcherIS3_XT_EXT0_EEE@Base 2.13.3
 (optional=templinst)_ZNSt8__detail9_CompilerINSt7__cxx1112regex_traitsIcEEE18_M_expression_termILb0ELb1EEEbRNS4_13_BracketStateERNS_15_BracketMatcherIS3_XT_EXT0_EEE@Base 2.13.3
 (optional=templinst)_ZNSt8__detail9_CompilerINSt7__cxx1112regex_traitsIcEEE18_M_expression_termILb1ELb0EEEbRNS4_13_BracketStateERNS_15_BracketMatcherIS3_XT_EXT0_EEE@Base 2.13.3
 (optional=templinst)_ZNSt8__detail9_CompilerINSt7__cxx1112regex_traitsIcEEE18_M_expression_termILb1ELb1EEEbRNS4_13_BracketStateERNS_15_BracketMatcherIS3_XT_EXT0_EEE@Base 2.13.3
 (optional=templinst)_ZNSt8__detail9_CompilerINSt7__cxx1112regex_traitsIcEEE21_M_bracket_expressionEv@Base 2.11.2
 (optional=templinst)_ZNSt8__detail9_CompilerINSt7__cxx1112regex_traitsIcEEE25_M_insert_bracket_matcherILb0ELb0EEEvb@Base 2.11.2
 (optional=templinst)_ZNSt8__detail9_CompilerINSt7__cxx1112regex_traitsIcEEE25_M_insert_bracket_matcherILb0ELb1EEEvb@Base 2.11.2
 (optional=templinst)_ZNSt8__detail9_CompilerINSt7__cxx1112regex_traitsIcEEE25_M_insert_bracket_matcherILb1ELb0EEEvb@Base 2.11.2
 (optional=templinst)_ZNSt8__detail9_CompilerINSt7__cxx1112regex_traitsIcEEE25_M_insert_bracket_matcherILb1ELb1EEEvb@Base 2.11.2
 (optional=templinst)_ZNSt8__detail9_CompilerINSt7__cxx1112regex_traitsIcEEE33_M_insert_character_class_matcherILb0ELb0EEEvv@Base 2.11.2
 (optional=templinst)_ZNSt8__detail9_CompilerINSt7__cxx1112regex_traitsIcEEE33_M_insert_character_class_matcherILb0ELb1EEEvv@Base 2.11.2
 (optional=templinst)_ZNSt8__detail9_CompilerINSt7__cxx1112regex_traitsIcEEE33_M_insert_character_class_matcherILb1ELb0EEEvv@Base 2.11.2
 (optional=templinst)_ZNSt8__detail9_CompilerINSt7__cxx1112regex_traitsIcEEE33_M_insert_character_class_matcherILb1ELb1EEEvv@Base 2.11.2
 (optional=templinst)_ZNSt8__detail9_CompilerINSt7__cxx1112regex_traitsIcEEE7_M_atomEv@Base 2.11.2
 (optional=templinst)_ZNSt8__detail9_CompilerINSt7__cxx1112regex_traitsIcEEEC1EPKcS6_RKSt6localeNSt15regex_constants18syntax_option_typeE@Base 2.11.2
 (optional=templinst)_ZNSt8__detail9_CompilerINSt7__cxx1112regex_traitsIcEEEC2EPKcS6_RKSt6localeNSt15regex_constants18syntax_option_typeE@Base 2.11.2
 (optional=templinst)_ZNSt8__detail9_CompilerINSt7__cxx1112regex_traitsIwEEE11_M_try_charEv@Base 2.11.2
 (optional=templinst)_ZNSt8__detail9_CompilerINSt7__cxx1112regex_traitsIwEEE12_M_assertionEv@Base 2.11.2
 (optional=templinst)_ZNSt8__detail9_CompilerINSt7__cxx1112regex_traitsIwEEE13_M_quantifierEv@Base 2.11.2
 (optional=templinst)_ZNSt8__detail9_CompilerINSt7__cxx1112regex_traitsIwEEE14_M_alternativeEv@Base 2.11.2
 (optional=templinst)_ZNSt8__detail9_CompilerINSt7__cxx1112regex_traitsIwEEE14_M_disjunctionEv@Base 2.11.2
 (optional=templinst)_ZNSt8__detail9_CompilerINSt7__cxx1112regex_traitsIwEEE16_M_cur_int_valueEi@Base 2.11.2
 (optional=templinst)_ZNSt8__detail9_CompilerINSt7__cxx1112regex_traitsIwEEE18_M_expression_termILb0ELb0EEEbRNS4_13_BracketStateERNS_15_BracketMatcherIS3_XT_EXT0_EEE@Base 2.13.3
 (optional=templinst)_ZNSt8__detail9_CompilerINSt7__cxx1112regex_traitsIwEEE18_M_expression_termILb0ELb1EEEbRNS4_13_BracketStateERNS_15_BracketMatcherIS3_XT_EXT0_EEE@Base 2.13.3
 (optional=templinst)_ZNSt8__detail9_CompilerINSt7__cxx1112regex_traitsIwEEE18_M_expression_termILb1ELb0EEEbRNS4_13_BracketStateERNS_15_BracketMatcherIS3_XT_EXT0_EEE@Base 2.13.3
 (optional=templinst)_ZNSt8__detail9_CompilerINSt7__cxx1112regex_traitsIwEEE18_M_expression_termILb1ELb1EEEbRNS4_13_BracketStateERNS_15_BracketMatcherIS3_XT_EXT0_EEE@Base 2.13.3
 (optional=templinst)_ZNSt8__detail9_CompilerINSt7__cxx1112regex_traitsIwEEE21_M_bracket_expressionEv@Base 2.11.2
 (optional=templinst)_ZNSt8__detail9_CompilerINSt7__cxx1112regex_traitsIwEEE25_M_insert_bracket_matcherILb0ELb0EEEvb@Base 2.11.2
 (optional=templinst)_ZNSt8__detail9_CompilerINSt7__cxx1112regex_traitsIwEEE25_M_insert_bracket_matcherILb0ELb1EEEvb@Base 2.11.2
 (optional=templinst)_ZNSt8__detail9_CompilerINSt7__cxx1112regex_traitsIwEEE25_M_insert_bracket_matcherILb1ELb0EEEvb@Base 2.11.2
 (optional=templinst)_ZNSt8__detail9_CompilerINSt7__cxx1112regex_traitsIwEEE25_M_insert_bracket_matcherILb1ELb1EEEvb@Base 2.11.2
 (optional=templinst)_ZNSt8__detail9_CompilerINSt7__cxx1112regex_traitsIwEEE33_M_insert_character_class_matcherILb0ELb0EEEvv@Base 2.11.2
 (optional=templinst)_ZNSt8__detail9_CompilerINSt7__cxx1112regex_traitsIwEEE33_M_insert_character_class_matcherILb0ELb1EEEvv@Base 2.11.2
 (optional=templinst)_ZNSt8__detail9_CompilerINSt7__cxx1112regex_traitsIwEEE33_M_insert_character_class_matcherILb1ELb0EEEvv@Base 2.11.2
 (optional=templinst)_ZNSt8__detail9_CompilerINSt7__cxx1112regex_traitsIwEEE33_M_insert_character_class_matcherILb1ELb1EEEvv@Base 2.11.2
 (optional=templinst)_ZNSt8__detail9_CompilerINSt7__cxx1112regex_traitsIwEEE7_M_atomEv@Base 2.11.2
 (optional=templinst)_ZNSt8__detail9_CompilerINSt7__cxx1112regex_traitsIwEEEC1EPKwS6_RKSt6localeNSt15regex_constants18syntax_option_typeE@Base 2.11.2
 (optional=templinst)_ZNSt8__detail9_CompilerINSt7__cxx1112regex_traitsIwEEEC2EPKwS6_RKSt6localeNSt15regex_constants18syntax_option_typeE@Base 2.11.2
 (optional=templinst)_ZNSt8__detail9_StateSeqINSt7__cxx1112regex_traitsIcEEE8_M_cloneEv@Base 2.11.2
 (optional=templinst)_ZNSt8__detail9_StateSeqINSt7__cxx1112regex_traitsIwEEE8_M_cloneEv@Base 2.11.2
 (optional=templinst)_ZSt13binary_searchIN9__gnu_cxx17__normal_iteratorIPKcSt6vectorIcSaIcEEEEcEbT_S8_RKT0_@Base 2.11.2
 (optional=templinst)_ZSt13binary_searchIN9__gnu_cxx17__normal_iteratorIPKwSt6vectorIwSaIwEEEEwEbT_S8_RKT0_@Base 2.11.2
 _ZTI10QsciLexerD@Base 2.11.2
 _ZTI11QsciLexerPO@Base 2.11.2
 _ZTI11QsciPrinter@Base 2.11.2
 _ZTI12QsciDocument@Base 2.11.2
 _ZTI12QsciLexerAVS@Base 2.11.2
 _ZTI12QsciLexerAsm@Base 2.14.1
 _ZTI12QsciLexerCPP@Base 2.11.2
 _ZTI12QsciLexerCSS@Base 2.11.2
 _ZTI12QsciLexerHex@Base 2.14.1
 _ZTI12QsciLexerIDL@Base 2.11.2
 _ZTI12QsciLexerLua@Base 2.11.2
 _ZTI12QsciLexerPOV@Base 2.11.2
 _ZTI12QsciLexerSQL@Base 2.11.2
 _ZTI12QsciLexerTCL@Base 2.11.2
 _ZTI12QsciLexerTeX@Base 2.11.2
 _ZTI12QsciLexerXML@Base 2.11.2
 _ZTI13QsciLexerBash@Base 2.11.2
 _ZTI13QsciLexerDiff@Base 2.11.2
 _ZTI13QsciLexerHTML@Base 2.11.2
 _ZTI13QsciLexerJSON@Base 2.11.2
 _ZTI13QsciLexerJava@Base 2.11.2
 _ZTI13QsciLexerMASM@Base 2.14.1
 _ZTI13QsciLexerNASM@Base 2.14.1
 _ZTI13QsciLexerPerl@Base 2.11.2
 _ZTI13QsciLexerRuby@Base 2.11.2
 _ZTI13QsciLexerSRec@Base 2.14.1
 _ZTI13QsciLexerVHDL@Base 2.11.2
 _ZTI13QsciLexerYAML@Base 2.11.2
 _ZTI13QsciScintilla@Base 2.11.2
 _ZTI14QsciLexerBatch@Base 2.11.2
 _ZTI14QsciLexerCMake@Base 2.11.2
 _ZTI14QsciLexerSpice@Base 2.11.2
 _ZTI15QsciLexerCSharp@Base 2.11.2
 _ZTI15QsciLexerCustom@Base 2.11.2
 _ZTI15QsciLexerMatlab@Base 2.11.2
 _ZTI15QsciLexerOctave@Base 2.11.2
 _ZTI15QsciLexerPascal@Base 2.11.2
 _ZTI15QsciLexerPython@Base 2.11.2
 _ZTI15QsciLexerTekHex@Base 2.14.1
 _ZTI16QsciAbstractAPIs@Base 2.11.2
 _ZTI16QsciLexerEDIFACT@Base 2.11.2
 _ZTI16QsciLexerFortran@Base 2.11.2
 _ZTI16QsciLexerVerilog@Base 2.11.2
 _ZTI17QsciLexerIntelHex@Base 2.14.1
 _ZTI17QsciLexerMakefile@Base 2.11.2
 _ZTI17QsciLexerMarkdown@Base 2.11.2
 _ZTI17QsciScintillaBase@Base 2.11.2
 _ZTI18QsciLexerFortran77@Base 2.11.2
 _ZTI19QsciLexerJavaScript@Base 2.11.2
 _ZTI19QsciLexerPostScript@Base 2.11.2
 _ZTI19QsciLexerProperties@Base 2.11.2
 _ZTI21QsciLexerCoffeeScript@Base 2.11.2
 _ZTI8QsciAPIs@Base 2.11.2
 _ZTI9QsciLexer@Base 2.11.2
 _ZTI9QsciMacro@Base 2.11.2
 (arch=armel riscv64)_ZTIN9__gnu_cxx7__mutexE@Base 2.11.2
 _ZTINSt8__detail11_AnyMatcherINSt7__cxx1112regex_traitsIcEELb0ELb0ELb0EEE@Base 2.11.2
 _ZTINSt8__detail11_AnyMatcherINSt7__cxx1112regex_traitsIcEELb0ELb0ELb1EEE@Base 2.11.2
 _ZTINSt8__detail11_AnyMatcherINSt7__cxx1112regex_traitsIcEELb0ELb1ELb0EEE@Base 2.11.2
 _ZTINSt8__detail11_AnyMatcherINSt7__cxx1112regex_traitsIcEELb0ELb1ELb1EEE@Base 2.11.2
 _ZTINSt8__detail11_AnyMatcherINSt7__cxx1112regex_traitsIcEELb1ELb0ELb0EEE@Base 2.11.2
 _ZTINSt8__detail11_AnyMatcherINSt7__cxx1112regex_traitsIcEELb1ELb0ELb1EEE@Base 2.11.2
 _ZTINSt8__detail11_AnyMatcherINSt7__cxx1112regex_traitsIcEELb1ELb1ELb0EEE@Base 2.11.2
 _ZTINSt8__detail11_AnyMatcherINSt7__cxx1112regex_traitsIcEELb1ELb1ELb1EEE@Base 2.11.2
 _ZTINSt8__detail11_AnyMatcherINSt7__cxx1112regex_traitsIwEELb0ELb0ELb0EEE@Base 2.11.2
 _ZTINSt8__detail11_AnyMatcherINSt7__cxx1112regex_traitsIwEELb0ELb0ELb1EEE@Base 2.11.2
 _ZTINSt8__detail11_AnyMatcherINSt7__cxx1112regex_traitsIwEELb0ELb1ELb0EEE@Base 2.11.2
 _ZTINSt8__detail11_AnyMatcherINSt7__cxx1112regex_traitsIwEELb0ELb1ELb1EEE@Base 2.11.2
 _ZTINSt8__detail11_AnyMatcherINSt7__cxx1112regex_traitsIwEELb1ELb0ELb0EEE@Base 2.11.2
 _ZTINSt8__detail11_AnyMatcherINSt7__cxx1112regex_traitsIwEELb1ELb0ELb1EEE@Base 2.11.2
 _ZTINSt8__detail11_AnyMatcherINSt7__cxx1112regex_traitsIwEELb1ELb1ELb0EEE@Base 2.11.2
 _ZTINSt8__detail11_AnyMatcherINSt7__cxx1112regex_traitsIwEELb1ELb1ELb1EEE@Base 2.11.2
 _ZTINSt8__detail12_CharMatcherINSt7__cxx1112regex_traitsIcEELb0ELb0EEE@Base 2.11.2
 _ZTINSt8__detail12_CharMatcherINSt7__cxx1112regex_traitsIcEELb0ELb1EEE@Base 2.11.2
 _ZTINSt8__detail12_CharMatcherINSt7__cxx1112regex_traitsIcEELb1ELb0EEE@Base 2.11.2
 _ZTINSt8__detail12_CharMatcherINSt7__cxx1112regex_traitsIcEELb1ELb1EEE@Base 2.11.2
 _ZTINSt8__detail12_CharMatcherINSt7__cxx1112regex_traitsIwEELb0ELb0EEE@Base 2.11.2
 _ZTINSt8__detail12_CharMatcherINSt7__cxx1112regex_traitsIwEELb0ELb1EEE@Base 2.11.2
 _ZTINSt8__detail12_CharMatcherINSt7__cxx1112regex_traitsIwEELb1ELb0EEE@Base 2.11.2
 _ZTINSt8__detail12_CharMatcherINSt7__cxx1112regex_traitsIwEELb1ELb1EEE@Base 2.11.2
 _ZTINSt8__detail15_BracketMatcherINSt7__cxx1112regex_traitsIcEELb0ELb0EEE@Base 2.11.2
 _ZTINSt8__detail15_BracketMatcherINSt7__cxx1112regex_traitsIcEELb0ELb1EEE@Base 2.11.2
 _ZTINSt8__detail15_BracketMatcherINSt7__cxx1112regex_traitsIcEELb1ELb0EEE@Base 2.11.2
 _ZTINSt8__detail15_BracketMatcherINSt7__cxx1112regex_traitsIcEELb1ELb1EEE@Base 2.11.2
 _ZTINSt8__detail15_BracketMatcherINSt7__cxx1112regex_traitsIwEELb0ELb0EEE@Base 2.11.2
 _ZTINSt8__detail15_BracketMatcherINSt7__cxx1112regex_traitsIwEELb0ELb1EEE@Base 2.11.2
 _ZTINSt8__detail15_BracketMatcherINSt7__cxx1112regex_traitsIwEELb1ELb0EEE@Base 2.11.2
 _ZTINSt8__detail15_BracketMatcherINSt7__cxx1112regex_traitsIwEELb1ELb1EEE@Base 2.11.2
 (arch=armel riscv64)_ZTISt11_Mutex_baseILN9__gnu_cxx12_Lock_policyE1EE@Base 2.11.2
 (arch=!armel !riscv64)_ZTISt11_Mutex_baseILN9__gnu_cxx12_Lock_policyE2EE@Base 2.11.2
 (arch=armel riscv64)_ZTISt16_Sp_counted_baseILN9__gnu_cxx12_Lock_policyE1EE@Base 2.11.2
 (arch=!armel !riscv64)_ZTISt16_Sp_counted_baseILN9__gnu_cxx12_Lock_policyE2EE@Base 2.11.2
 (arch=armel armhf)_ZTISt19_Sp_make_shared_tag@Base 2.11.5
 (arch=armel riscv64)_ZTISt23_Sp_counted_ptr_inplaceINSt8__detail4_NFAINSt7__cxx1112regex_traitsIcEEEESaIvELN9__gnu_cxx12_Lock_policyE1EE@Base 2.13.3
 (optional=templinst|arch=!armel !riscv64)_ZTISt23_Sp_counted_ptr_inplaceINSt8__detail4_NFAINSt7__cxx1112regex_traitsIcEEEESaIvELN9__gnu_cxx12_Lock_policyE2EE@Base 2.13.3
 (arch=armel riscv64)_ZTISt23_Sp_counted_ptr_inplaceINSt8__detail4_NFAINSt7__cxx1112regex_traitsIwEEEESaIvELN9__gnu_cxx12_Lock_policyE1EE@Base 2.13.3
 (optional=templinst|arch=!armel !riscv64)_ZTISt23_Sp_counted_ptr_inplaceINSt8__detail4_NFAINSt7__cxx1112regex_traitsIwEEEESaIvELN9__gnu_cxx12_Lock_policyE2EE@Base 2.13.3
 _ZTS10QsciLexerD@Base 2.11.2
 _ZTS11QsciLexerPO@Base 2.11.2
 _ZTS11QsciPrinter@Base 2.11.2
 _ZTS12QsciDocument@Base 2.11.2
 _ZTS12QsciLexerAVS@Base 2.11.2
 _ZTS12QsciLexerAsm@Base 2.14.1
 _ZTS12QsciLexerCPP@Base 2.11.2
 _ZTS12QsciLexerCSS@Base 2.11.2
 _ZTS12QsciLexerHex@Base 2.14.1
 _ZTS12QsciLexerIDL@Base 2.11.2
 _ZTS12QsciLexerLua@Base 2.11.2
 _ZTS12QsciLexerPOV@Base 2.11.2
 _ZTS12QsciLexerSQL@Base 2.11.2
 _ZTS12QsciLexerTCL@Base 2.11.2
 _ZTS12QsciLexerTeX@Base 2.11.2
 _ZTS12QsciLexerXML@Base 2.11.2
 _ZTS13QsciLexerBash@Base 2.11.2
 _ZTS13QsciLexerDiff@Base 2.11.2
 _ZTS13QsciLexerHTML@Base 2.11.2
 _ZTS13QsciLexerJSON@Base 2.11.2
 _ZTS13QsciLexerJava@Base 2.11.2
 _ZTS13QsciLexerMASM@Base 2.14.1
 _ZTS13QsciLexerNASM@Base 2.14.1
 _ZTS13QsciLexerPerl@Base 2.11.2
 _ZTS13QsciLexerRuby@Base 2.11.2
 _ZTS13QsciLexerSRec@Base 2.14.1
 _ZTS13QsciLexerVHDL@Base 2.11.2
 _ZTS13QsciLexerYAML@Base 2.11.2
 _ZTS13QsciScintilla@Base 2.11.2
 _ZTS14QsciLexerBatch@Base 2.11.2
 _ZTS14QsciLexerCMake@Base 2.11.2
 _ZTS14QsciLexerSpice@Base 2.11.2
 _ZTS15QsciLexerCSharp@Base 2.11.2
 _ZTS15QsciLexerCustom@Base 2.11.2
 _ZTS15QsciLexerMatlab@Base 2.11.2
 _ZTS15QsciLexerOctave@Base 2.11.2
 _ZTS15QsciLexerPascal@Base 2.11.2
 _ZTS15QsciLexerPython@Base 2.11.2
 _ZTS15QsciLexerTekHex@Base 2.14.1
 _ZTS16QsciAbstractAPIs@Base 2.11.2
 _ZTS16QsciLexerEDIFACT@Base 2.11.2
 _ZTS16QsciLexerFortran@Base 2.11.2
 _ZTS16QsciLexerVerilog@Base 2.11.2
 _ZTS17QsciLexerIntelHex@Base 2.14.1
 _ZTS17QsciLexerMakefile@Base 2.11.2
 _ZTS17QsciLexerMarkdown@Base 2.11.2
 _ZTS17QsciScintillaBase@Base 2.11.2
 _ZTS18QsciLexerFortran77@Base 2.11.2
 _ZTS19QsciLexerJavaScript@Base 2.11.2
 _ZTS19QsciLexerPostScript@Base 2.11.2
 _ZTS19QsciLexerProperties@Base 2.11.2
 _ZTS21QsciLexerCoffeeScript@Base 2.11.2
 _ZTS8QsciAPIs@Base 2.11.2
 _ZTS9QsciLexer@Base 2.11.2
 _ZTS9QsciMacro@Base 2.11.2
 (arch=armel riscv64)_ZTSN9__gnu_cxx7__mutexE@Base 2.11.2
 _ZTSNSt8__detail11_AnyMatcherINSt7__cxx1112regex_traitsIcEELb0ELb0ELb0EEE@Base 2.11.2
 _ZTSNSt8__detail11_AnyMatcherINSt7__cxx1112regex_traitsIcEELb0ELb0ELb1EEE@Base 2.11.2
 _ZTSNSt8__detail11_AnyMatcherINSt7__cxx1112regex_traitsIcEELb0ELb1ELb0EEE@Base 2.11.2
 _ZTSNSt8__detail11_AnyMatcherINSt7__cxx1112regex_traitsIcEELb0ELb1ELb1EEE@Base 2.11.2
 _ZTSNSt8__detail11_AnyMatcherINSt7__cxx1112regex_traitsIcEELb1ELb0ELb0EEE@Base 2.11.2
 _ZTSNSt8__detail11_AnyMatcherINSt7__cxx1112regex_traitsIcEELb1ELb0ELb1EEE@Base 2.11.2
 _ZTSNSt8__detail11_AnyMatcherINSt7__cxx1112regex_traitsIcEELb1ELb1ELb0EEE@Base 2.11.2
 _ZTSNSt8__detail11_AnyMatcherINSt7__cxx1112regex_traitsIcEELb1ELb1ELb1EEE@Base 2.11.2
 _ZTSNSt8__detail11_AnyMatcherINSt7__cxx1112regex_traitsIwEELb0ELb0ELb0EEE@Base 2.11.2
 _ZTSNSt8__detail11_AnyMatcherINSt7__cxx1112regex_traitsIwEELb0ELb0ELb1EEE@Base 2.11.2
 _ZTSNSt8__detail11_AnyMatcherINSt7__cxx1112regex_traitsIwEELb0ELb1ELb0EEE@Base 2.11.2
 _ZTSNSt8__detail11_AnyMatcherINSt7__cxx1112regex_traitsIwEELb0ELb1ELb1EEE@Base 2.11.2
 _ZTSNSt8__detail11_AnyMatcherINSt7__cxx1112regex_traitsIwEELb1ELb0ELb0EEE@Base 2.11.2
 _ZTSNSt8__detail11_AnyMatcherINSt7__cxx1112regex_traitsIwEELb1ELb0ELb1EEE@Base 2.11.2
 _ZTSNSt8__detail11_AnyMatcherINSt7__cxx1112regex_traitsIwEELb1ELb1ELb0EEE@Base 2.11.2
 _ZTSNSt8__detail11_AnyMatcherINSt7__cxx1112regex_traitsIwEELb1ELb1ELb1EEE@Base 2.11.2
 _ZTSNSt8__detail12_CharMatcherINSt7__cxx1112regex_traitsIcEELb0ELb0EEE@Base 2.11.2
 _ZTSNSt8__detail12_CharMatcherINSt7__cxx1112regex_traitsIcEELb0ELb1EEE@Base 2.11.2
 _ZTSNSt8__detail12_CharMatcherINSt7__cxx1112regex_traitsIcEELb1ELb0EEE@Base 2.11.2
 _ZTSNSt8__detail12_CharMatcherINSt7__cxx1112regex_traitsIcEELb1ELb1EEE@Base 2.11.2
 _ZTSNSt8__detail12_CharMatcherINSt7__cxx1112regex_traitsIwEELb0ELb0EEE@Base 2.11.2
 _ZTSNSt8__detail12_CharMatcherINSt7__cxx1112regex_traitsIwEELb0ELb1EEE@Base 2.11.2
 _ZTSNSt8__detail12_CharMatcherINSt7__cxx1112regex_traitsIwEELb1ELb0EEE@Base 2.11.2
 _ZTSNSt8__detail12_CharMatcherINSt7__cxx1112regex_traitsIwEELb1ELb1EEE@Base 2.11.2
 _ZTSNSt8__detail15_BracketMatcherINSt7__cxx1112regex_traitsIcEELb0ELb0EEE@Base 2.11.2
 _ZTSNSt8__detail15_BracketMatcherINSt7__cxx1112regex_traitsIcEELb0ELb1EEE@Base 2.11.2
 _ZTSNSt8__detail15_BracketMatcherINSt7__cxx1112regex_traitsIcEELb1ELb0EEE@Base 2.11.2
 _ZTSNSt8__detail15_BracketMatcherINSt7__cxx1112regex_traitsIcEELb1ELb1EEE@Base 2.11.2
 _ZTSNSt8__detail15_BracketMatcherINSt7__cxx1112regex_traitsIwEELb0ELb0EEE@Base 2.11.2
 _ZTSNSt8__detail15_BracketMatcherINSt7__cxx1112regex_traitsIwEELb0ELb1EEE@Base 2.11.2
 _ZTSNSt8__detail15_BracketMatcherINSt7__cxx1112regex_traitsIwEELb1ELb0EEE@Base 2.11.2
 _ZTSNSt8__detail15_BracketMatcherINSt7__cxx1112regex_traitsIwEELb1ELb1EEE@Base 2.11.2
 (arch=armel riscv64)_ZTSSt11_Mutex_baseILN9__gnu_cxx12_Lock_policyE1EE@Base 2.11.2
 (arch=!armel !riscv64)_ZTSSt11_Mutex_baseILN9__gnu_cxx12_Lock_policyE2EE@Base 2.11.2
 (arch=armel riscv64)_ZTSSt16_Sp_counted_baseILN9__gnu_cxx12_Lock_policyE1EE@Base 2.11.2
 (arch=!armel !riscv64)_ZTSSt16_Sp_counted_baseILN9__gnu_cxx12_Lock_policyE2EE@Base 2.11.2
 _ZTSSt19_Sp_make_shared_tag@Base 2.11.2
 (arch=armel riscv64)_ZTSSt23_Sp_counted_ptr_inplaceINSt8__detail4_NFAINSt7__cxx1112regex_traitsIcEEEESaIvELN9__gnu_cxx12_Lock_policyE1EE@Base 2.13.3
 (arch=!armel !riscv64)_ZTSSt23_Sp_counted_ptr_inplaceINSt8__detail4_NFAINSt7__cxx1112regex_traitsIcEEEESaIvELN9__gnu_cxx12_Lock_policyE2EE@Base 2.13.3
 (arch=armel riscv64)_ZTSSt23_Sp_counted_ptr_inplaceINSt8__detail4_NFAINSt7__cxx1112regex_traitsIwEEEESaIvELN9__gnu_cxx12_Lock_policyE1EE@Base 2.13.3
 (arch=!armel !riscv64)_ZTSSt23_Sp_counted_ptr_inplaceINSt8__detail4_NFAINSt7__cxx1112regex_traitsIwEEEESaIvELN9__gnu_cxx12_Lock_policyE2EE@Base 2.13.3
 _ZTV10QsciLexerD@Base 2.11.2
 _ZTV11QsciLexerPO@Base 2.11.2
 _ZTV11QsciPrinter@Base 2.11.2
 _ZTV12QsciDocument@Base 2.11.2
 _ZTV12QsciLexerAVS@Base 2.11.2
 _ZTV12QsciLexerAsm@Base 2.14.1
 _ZTV12QsciLexerCPP@Base 2.11.2
 _ZTV12QsciLexerCSS@Base 2.11.2
 _ZTV12QsciLexerHex@Base 2.14.1
 _ZTV12QsciLexerIDL@Base 2.11.2
 _ZTV12QsciLexerLua@Base 2.11.2
 _ZTV12QsciLexerPOV@Base 2.11.2
 _ZTV12QsciLexerSQL@Base 2.11.2
 _ZTV12QsciLexerTCL@Base 2.11.2
 _ZTV12QsciLexerTeX@Base 2.11.2
 _ZTV12QsciLexerXML@Base 2.11.2
 _ZTV13QsciLexerBash@Base 2.11.2
 _ZTV13QsciLexerDiff@Base 2.11.2
 _ZTV13QsciLexerHTML@Base 2.11.2
 _ZTV13QsciLexerJSON@Base 2.11.2
 _ZTV13QsciLexerJava@Base 2.11.2
 _ZTV13QsciLexerMASM@Base 2.14.1
 _ZTV13QsciLexerNASM@Base 2.14.1
 _ZTV13QsciLexerPerl@Base 2.11.2
 _ZTV13QsciLexerRuby@Base 2.11.2
 _ZTV13QsciLexerSRec@Base 2.14.1
 _ZTV13QsciLexerVHDL@Base 2.11.2
 _ZTV13QsciLexerYAML@Base 2.11.2
 _ZTV13QsciScintilla@Base 2.11.2
 _ZTV14QsciLexerBatch@Base 2.11.2
 _ZTV14QsciLexerCMake@Base 2.11.2
 _ZTV14QsciLexerSpice@Base 2.11.2
 _ZTV15QsciLexerCSharp@Base 2.11.2
 _ZTV15QsciLexerCustom@Base 2.11.2
 _ZTV15QsciLexerMatlab@Base 2.11.2
 _ZTV15QsciLexerOctave@Base 2.11.2
 _ZTV15QsciLexerPascal@Base 2.11.2
 _ZTV15QsciLexerPython@Base 2.11.2
 _ZTV15QsciLexerTekHex@Base 2.14.1
 _ZTV16QsciAbstractAPIs@Base 2.11.2
 _ZTV16QsciLexerEDIFACT@Base 2.11.2
 _ZTV16QsciLexerFortran@Base 2.11.2
 _ZTV16QsciLexerVerilog@Base 2.11.2
 _ZTV17QsciLexerIntelHex@Base 2.14.1
 _ZTV17QsciLexerMakefile@Base 2.11.2
 _ZTV17QsciLexerMarkdown@Base 2.11.2
 _ZTV17QsciScintillaBase@Base 2.11.2
 _ZTV18QsciLexerFortran77@Base 2.11.2
 _ZTV19QsciLexerJavaScript@Base 2.11.2
 _ZTV19QsciLexerPostScript@Base 2.11.2
 _ZTV19QsciLexerProperties@Base 2.11.2
 _ZTV21QsciLexerCoffeeScript@Base 2.11.2
 _ZTV8QsciAPIs@Base 2.11.2
 _ZTV9QsciLexer@Base 2.11.2
 _ZTV9QsciMacro@Base 2.11.2
 (arch=armel riscv64)_ZTVSt23_Sp_counted_ptr_inplaceINSt8__detail4_NFAINSt7__cxx1112regex_traitsIcEEEESaIvELN9__gnu_cxx12_Lock_policyE1EE@Base 2.13.3
 (optional=templinst|arch=!armel !riscv64)_ZTVSt23_Sp_counted_ptr_inplaceINSt8__detail4_NFAINSt7__cxx1112regex_traitsIcEEEESaIvELN9__gnu_cxx12_Lock_policyE2EE@Base 2.13.3
 (arch=armel riscv64)_ZTVSt23_Sp_counted_ptr_inplaceINSt8__detail4_NFAINSt7__cxx1112regex_traitsIwEEEESaIvELN9__gnu_cxx12_Lock_policyE1EE@Base 2.13.3
 (optional=templinst|arch=!armel !riscv64)_ZTVSt23_Sp_counted_ptr_inplaceINSt8__detail4_NFAINSt7__cxx1112regex_traitsIwEEEESaIvELN9__gnu_cxx12_Lock_policyE2EE@Base 2.13.3
 (optional=templinst)_ZZNKSt7__cxx1112regex_traitsIcE16lookup_classnameIPKcEENS1_10_RegexMaskET_S6_bE12__classnames@Base 2.11.2
 (optional=templinst)_ZZNKSt7__cxx1112regex_traitsIcE18lookup_collatenameIPKcEENS_12basic_stringIcSt11char_traitsIcESaIcEEET_SA_E14__collatenames@Base 2.11.2
 (optional=templinst)_ZZNKSt7__cxx1112regex_traitsIwE16lookup_classnameIPKwEENS1_10_RegexMaskET_S6_bE12__classnames@Base 2.11.2
 (optional=templinst)_ZZNKSt7__cxx1112regex_traitsIwE18lookup_collatenameIPKwEENS_12basic_stringIwSt11char_traitsIwESaIwEEET_SA_E14__collatenames@Base 2.11.2
 (optional=templinst)_ZZNKSt8__detail11_AnyMatcherINSt7__cxx1112regex_traitsIcEELb0ELb0ELb0EEclEcE5__nul@Base 2.11.2
 (optional=templinst)_ZZNKSt8__detail11_AnyMatcherINSt7__cxx1112regex_traitsIcEELb0ELb0ELb1EEclEcE5__nul@Base 2.11.2
 (optional=templinst)_ZZNKSt8__detail11_AnyMatcherINSt7__cxx1112regex_traitsIcEELb0ELb1ELb0EEclEcE5__nul@Base 2.11.2
 (optional=templinst)_ZZNKSt8__detail11_AnyMatcherINSt7__cxx1112regex_traitsIcEELb0ELb1ELb1EEclEcE5__nul@Base 2.11.2
 (optional=templinst)_ZZNKSt8__detail11_AnyMatcherINSt7__cxx1112regex_traitsIwEELb0ELb0ELb0EEclEwE5__nul@Base 2.11.2
 (optional=templinst)_ZZNKSt8__detail11_AnyMatcherINSt7__cxx1112regex_traitsIwEELb0ELb0ELb1EEclEwE5__nul@Base 2.11.2
 (optional=templinst)_ZZNKSt8__detail11_AnyMatcherINSt7__cxx1112regex_traitsIwEELb0ELb1ELb0EEclEwE5__nul@Base 2.11.2
 (optional=templinst)_ZZNKSt8__detail11_AnyMatcherINSt7__cxx1112regex_traitsIwEELb0ELb1ELb1EEclEwE5__nul@Base 2.11.2
 _ZZNSt19_Sp_make_shared_tag5_S_tiEvE5__tag@Base 2.11.2
 (c++)"non-virtual thunk to QsciScintilla::~QsciScintilla()@Base" 2.11.2
 (c++)"non-virtual thunk to QsciScintillaBase::~QsciScintillaBase()@Base" 2.11.2
